(i__main__
ACTopol
p1
(dp2
S'acLog'
p3
S'Running: /usr/local/antechamber-1.27/exe/bondtype -i ANTECHAMBER_BOND_TYPE.AC0 -o ANTECHAMBER_BOND_TYPE.AC -f ac -j full\n\n\nRunning: /usr/local/antechamber-1.27/exe/atomtype -i ANTECHAMBER_AC.AC0 -o ANTECHAMBER_AC.AC -p gaff\n\nTotal number of electrons: 256; net charge: 0\n\nRunning: $ACHOME/exe/mopac.sh\n\nRunning: /usr/local/antechamber-1.27/exe/am1bcc -i ANTECHAMBER_AM1BCC_PRE.AC -o ANTECHAMBER_AM1BCC.AC -f ac -p /usr/local/antechamber-1.27/dat/antechamber/BCCPARM.DAT -s 2 -j 1\n\nRunning: /usr/local/antechamber-1.27/exe/atomtype -f ac -p bcc -o ANTECHAMBER_AM1BCC.AC -i ANTECHAMBER_AM1BCC_PRE.AC\n\n\n'
p4
sS'force'
p5
I01
sS'homeDir'
p6
S'Ligand.acpypi'
p7
sS'acBaseName'
p8
S'Ligand_AC'
p9
sS'topFileData'
p10
(lp11
S'%VERSION  VERSION_STAMP = V0001.000  DATE = 01/28/10  18:26:02                  \n'
p12
aS'%FLAG TITLE                                                                     \n'
p13
aS'%FORMAT(20a4)                                                                   \n'
p14
aS'Ligand.pdb                                                                      \n'
p15
aS'%FLAG POINTERS                                                                  \n'
p16
aS'%FORMAT(10I8)                                                                   \n'
p17
aS'      58       9      26      35      59      49     105      90       0       0\n'
p18
aS'     318       1      35      49      90      19      36      25      13       0\n'
p19
aS'       0       0       0       0       0       0       0       0      58       0\n'
p20
aS'       0\n'
p21
aS'%FLAG ATOM_NAME                                                                 \n'
p22
aS'%FORMAT(20a4)                                                                   \n'
p23
aS'C1  C2  C3  C4  C5  C6  H1  C7  O1  N1  C8  O2  C9  C10 C11 C12 C13 C14 O3  N2  \n'
p24
aS'C15 C16 C17 C18 C19 C20 C21 C22 C23 N3  C24 C25 H2  H3  H4  H5  H6  H7  Br1 H8  \n'
p25
aS'H9  H10 H11 H12 H13 H14 H15 H16 H17 H18 H19 H20 H21 H22 H23 H24 H25 H26 \n'
p26
aS'%FLAG CHARGE                                                                    \n'
p27
aS'%FORMAT(5E16.8)                                                                 \n'
p28
aS' -2.07369774E+00 -2.12289795E+00 -1.11520476E+00 -2.63494458E+00 -2.53836639E+00\n'
p29
aS' -1.10244915E+00  2.94290145E+00  1.31692562E+01 -1.02063102E+01 -9.48470715E+00\n'
p30
aS'  1.34462352E+01 -1.11684477E+01  1.89511920E+00 -1.83498561E+00 -1.53613989E+00\n'
p31
aS' -1.39036149E+00 -2.70601155E+00  1.19100953E+01 -1.13051149E+01 -1.02154214E+01\n'
p32
aS'  1.68191829E+00 -5.97691440E-01 -2.76067845E+00 -1.76027418E+00 -1.05507117E+00\n'
p33
aS' -1.00769319E+00 -1.71289620E+00 -2.63494458E+00 -6.92447400E-01 -3.19072473E+00\n'
p34
aS' -6.94269630E-01 -9.78537510E-01  1.08969354E+00  1.09698246E+00  1.01680434E+00\n'
p35
aS'  5.78011356E+00  2.46365496E+00  2.59303329E+00 -1.85138568E+00  2.67867810E+00\n'
p36
aS'  9.67604130E-01  1.03502664E+00  7.27069770E-01  1.45413954E+00  5.71633551E+00\n'
p37
aS'  1.37396142E+00  9.47559600E-01  1.23547194E+00  8.50981410E-01  8.61914790E-01\n'
p38
aS'  7.23425310E-01  1.13889375E+00  1.04231556E+00  1.25916093E+00  1.09333800E+00\n'
p39
aS'  2.84450103E+00  2.66410026E+00  2.67138918E+00\n'
p40
aS'%FLAG MASS                                                                      \n'
p41
aS'%FORMAT(5E16.8)                                                                 \n'
p42
aS'  1.20100000E+01  1.20100000E+01  1.20100000E+01  1.20100000E+01  1.20100000E+01\n'
p43
aS'  1.20100000E+01  1.00800000E+00  1.20100000E+01  1.60000000E+01  1.40100000E+01\n'
p44
aS'  1.20100000E+01  1.60000000E+01  1.20100000E+01  1.20100000E+01  1.20100000E+01\n'
p45
aS'  1.20100000E+01  1.20100000E+01  1.20100000E+01  1.60000000E+01  1.40100000E+01\n'
p46
aS'  1.20100000E+01  1.20100000E+01  1.20100000E+01  1.20100000E+01  1.20100000E+01\n'
p47
aS'  1.20100000E+01  1.20100000E+01  1.20100000E+01  1.20100000E+01  1.40100000E+01\n'
p48
aS'  1.20100000E+01  1.20100000E+01  1.00800000E+00  1.00800000E+00  1.00800000E+00\n'
p49
aS'  1.00800000E+00  1.00800000E+00  1.00800000E+00  7.99000000E+01  1.00800000E+00\n'
p50
aS'  1.00800000E+00  1.00800000E+00  1.00800000E+00  1.00800000E+00  1.00800000E+00\n'
p51
aS'  1.00800000E+00  1.00800000E+00  1.00800000E+00  1.00800000E+00  1.00800000E+00\n'
p52
aS'  1.00800000E+00  1.00800000E+00  1.00800000E+00  1.00800000E+00  1.00800000E+00\n'
p53
aS'  1.00800000E+00  1.00800000E+00  1.00800000E+00\n'
p54
aS'%FLAG ATOM_TYPE_INDEX                                                           \n'
p55
aS'%FORMAT(10I8)                                                                   \n'
p56
aS'       1       1       1       1       1       1       2       1       3       4\n'
p57
aS'       1       3       5       5       5       5       5       1       3       4\n'
p58
aS'       5       5       1       1       1       1       1       1       1       4\n'
p59
aS'       1       5       6       6       6       7       2       2       8       2\n'
p60
aS'       6       6       9       9       7       6       6       6       6       6\n'
p61
aS'       6       6       6       9       9       2       2       2\n'
p62
aS'%FLAG NUMBER_EXCLUDED_ATOMS                                                     \n'
p63
aS'%FORMAT(10I8)                                                                   \n'
p64
aS'      10       9      10      11      10       7       2       8       3       9\n'
p65
aS'       6       1       9      11      13      12      11      11       5      10\n'
p66
aS'       9      12      17      14       9       7       7       7       7       7\n'
p67
aS'       7       4       2       1       1       1       1       1       1       1\n'
p68
aS'       3       2       2       1       1       3       2       3       2       3\n'
p69
aS'       2       3       2       1       1       1       1       1\n'
p70
aS'%FLAG NONBONDED_PARM_INDEX                                                      \n'
p71
aS'%FORMAT(10I8)                                                                   \n'
p72
aS'       1       2       4       7      11      16      22      29      37       2\n'
p73
aS'       3       5       8      12      17      23      30      38       4       5\n'
p74
aS'       6       9      13      18      24      31      39       7       8       9\n'
p75
aS'      10      14      19      25      32      40      11      12      13      14\n'
p76
aS'      15      20      26      33      41      16      17      18      19      20\n'
p77
aS'      21      27      34      42      22      23      24      25      26      27\n'
p78
aS'      28      35      43      29      30      31      32      33      34      35\n'
p79
aS'      36      44      37      38      39      40      41      42      43      44\n'
p80
aS'      45\n'
p81
aS'%FLAG RESIDUE_LABEL                                                             \n'
p82
aS'%FORMAT(20a4)                                                                   \n'
p83
aS'LIG \n'
p84
aS'%FLAG RESIDUE_POINTER                                                           \n'
p85
aS'%FORMAT(10I8)                                                                   \n'
p86
aS'       1\n'
p87
aS'%FLAG BOND_FORCE_CONSTANT                                                       \n'
p88
aS'%FORMAT(5E16.8)                                                                 \n'
p89
aS'  4.78400000E+02  3.44300000E+02  3.49700000E+02  6.48000000E+02  4.78200000E+02\n'
p90
aS'  3.30600000E+02  3.03100000E+02  3.35900000E+02  3.37300000E+02  3.28300000E+02\n'
p91
aS'  4.10200000E+02  3.37300000E+02  4.11700000E+02  5.04000000E+02  2.69600000E+02\n'
p92
aS'  4.70300000E+02  4.38800000E+02  4.06600000E+02  3.37300000E+02\n'
p93
aS'%FLAG BOND_EQUIL_VALUE                                                          \n'
p94
aS'%FORMAT(5E16.8)                                                                 \n'
p95
aS'  1.38700000E+00  1.08700000E+00  1.48700000E+00  1.21400000E+00  1.34500000E+00\n'
p96
aS'  1.46000000E+00  1.53500000E+00  1.09300000E+00  1.09200000E+00  1.50800000E+00\n'
p97
aS'  1.00900000E+00  1.49900000E+00  1.43400000E+00  1.37100000E+00  1.89700000E+00\n'
p98
aS'  1.35000000E+00  1.37100000E+00  1.01100000E+00  1.49900000E+00\n'
p99
aS'%FLAG ANGLE_FORCE_CONSTANT                                                      \n'
p100
aS'%FORMAT(5E16.8)                                                                 \n'
p101
aS'  6.72000000E+01  4.85000000E+01  6.46000000E+01  6.94000000E+01  6.87000000E+01\n'
p102
aS'  6.74000000E+01  6.39000000E+01  7.58000000E+01  6.59000000E+01  4.98000000E+01\n'
p103
aS'  6.32000000E+01  4.64000000E+01  4.64000000E+01  6.38000000E+01  6.80000000E+01\n'
p104
aS'  6.79000000E+01  4.72000000E+01  4.92000000E+01  4.60000000E+01  6.47000000E+01\n'
p105
aS'  6.41000000E+01  6.48000000E+01  4.72000000E+01  6.60000000E+01  7.29000000E+01\n'
p106
aS'  6.48000000E+01  6.82000000E+01  7.02000000E+01  6.35000000E+01  6.85000000E+01\n'
p107
aS'  4.82000000E+01  6.55000000E+01  4.72000000E+01  4.72000000E+01  3.94000000E+01\n'
p108
aS'  3.92000000E+01\n'
p109
aS'%FLAG ANGLE_EQUIL_VALUE                                                         \n'
p110
aS'%FORMAT(5E16.8)                                                                 \n'
p111
aS'  2.09387240E+00  2.09457053E+00  2.09683946E+00  1.95529320E+00  2.15443535E+00\n'
p112
aS'  2.08793828E+00  2.11795796E+00  2.12982620E+00  1.95703853E+00  1.90799476E+00\n'
p113
aS'  1.93085858E+00  1.92073567E+00  1.92108473E+00  1.92911325E+00  2.14867576E+00\n'
p114
aS'  2.00974750E+00  1.91427794E+00  2.06751792E+00  2.03819637E+00  1.88670173E+00\n'
p115
aS'  2.05617327E+00  2.08479669E+00  1.93487284E+00  2.09614133E+00  1.90974009E+00\n'
p116
aS'  2.08479669E+00  1.98112408E+00  2.06542352E+00  2.06175833E+00  1.97484090E+00\n'
p117
aS'  2.14274164E+00  2.14326524E+00  2.17572838E+00  1.93487284E+00  1.89106506E+00\n'
p118
aS'  1.91200902E+00\n'
p119
aS'%FLAG DIHEDRAL_FORCE_CONSTANT                                                   \n'
p120
aS'%FORMAT(5E16.8)                                                                 \n'
p121
aS'  3.62500000E+00  2.50000000E+00  5.30000000E-01  1.50000000E-01  5.00000000E-01\n'
p122
aS'  0.00000000E+00  1.55555556E-01  2.00000000E-01  2.50000000E-01  1.80000000E-01\n'
p123
aS'  1.60000000E-01  0.00000000E+00  7.00000000E-02  1.00000000E-01  8.00000000E-01\n'
p124
aS'  8.00000000E-02  2.00000000E+00  0.00000000E+00  2.55000000E+00  4.00000000E+00\n'
p125
aS'  1.70000000E+00  3.00000000E-01  1.50000000E-01  1.10000000E+00  1.05000000E+01\n'
p126
aS'%FLAG DIHEDRAL_PERIODICITY                                                      \n'
p127
aS'%FORMAT(5E16.8)                                                                 \n'
p128
aS'  2.00000000E+00  2.00000000E+00  1.00000000E+00  3.00000000E+00  4.00000000E+00\n'
p129
aS'  2.00000000E+00  3.00000000E+00  1.00000000E+00  2.00000000E+00  3.00000000E+00\n'
p130
aS'  3.00000000E+00  2.00000000E+00  2.00000000E+00  4.00000000E+00  1.00000000E+00\n'
p131
aS'  3.00000000E+00  1.00000000E+00  3.00000000E+00  2.00000000E+00  2.00000000E+00\n'
p132
aS'  2.00000000E+00  2.00000000E+00  3.00000000E+00  2.00000000E+00  2.00000000E+00\n'
p133
aS'%FLAG DIHEDRAL_PHASE                                                            \n'
p134
aS'%FORMAT(5E16.8)                                                                 \n'
p135
aS'  3.14159400E+00  3.14159400E+00  0.00000000E+00  3.14159400E+00  3.14159400E+00\n'
p136
aS'  0.00000000E+00  0.00000000E+00  3.14159400E+00  3.14159400E+00  0.00000000E+00\n'
p137
aS'  0.00000000E+00  3.14159400E+00  0.00000000E+00  0.00000000E+00  0.00000000E+00\n'
p138
aS'  3.14159400E+00  0.00000000E+00  0.00000000E+00  3.14159400E+00  3.14159400E+00\n'
p139
aS'  3.14159400E+00  3.14159400E+00  0.00000000E+00  3.14159400E+00  3.14159400E+00\n'
p140
aS'%FLAG SOLTY                                                                     \n'
p141
aS'%FORMAT(5E16.8)                                                                 \n'
p142
aS'  0.00000000E+00  0.00000000E+00  0.00000000E+00  0.00000000E+00  0.00000000E+00\n'
p143
aS'  0.00000000E+00  0.00000000E+00  0.00000000E+00  0.00000000E+00  0.00000000E+00\n'
p144
aS'  0.00000000E+00  0.00000000E+00  0.00000000E+00\n'
p145
aS'%FLAG LENNARD_JONES_ACOEF                                                       \n'
p146
aS'%FORMAT(5E16.8)                                                                 \n'
p147
aS'  8.19971662E+05  7.62451550E+04  5.71629601E+03  5.74393458E+05  4.77908183E+04\n'
p148
aS'  3.79876399E+05  8.82619071E+05  7.91627154E+04  6.06829342E+05  9.44293233E+05\n'
p149
aS'  9.24822270E+05  8.59947003E+04  6.47841731E+05  9.95480466E+05  1.04308023E+06\n'
p150
aS'  8.61541883E+04  6.55825601E+03  5.44261042E+04  8.96776989E+04  9.71708117E+04\n'
p151
aS'  7.51607703E+03  2.27577561E+03  8.90987508E+01  1.02595236E+03  2.12601181E+03\n'
p152
aS'  2.56678134E+03  1.07193646E+02  1.39982777E-01  4.06163112E+06  4.25969077E+05\n'
p153
aS'  3.02884402E+06  4.46203747E+06  4.58099601E+06  4.77304850E+05  1.79272682E+04\n'
p154
aS'  1.87821636E+07  6.01816484E+04  4.33325458E+03  3.69471530E+04  6.20665997E+04\n'
p155
aS'  6.78771368E+04  4.98586848E+03  5.94667300E+01  3.43778350E+05  3.25969625E+03\n'
p156
aS'%FLAG LENNARD_JONES_BCOEF                                                       \n'
p157
aS'%FORMAT(5E16.8)                                                                 \n'
p158
aS'  5.31102864E+02  1.04660679E+02  1.85196588E+01  5.55666448E+02  1.03580945E+02\n'
p159
aS'  5.64885984E+02  6.53361429E+02  1.26451907E+02  6.77220874E+02  8.01323529E+02\n'
p160
aS'  5.99015525E+02  1.18043746E+02  6.26720080E+02  7.36907417E+02  6.75612247E+02\n'
p161
aS'  1.12529845E+02  2.00642027E+01  1.11805549E+02  1.36131731E+02  1.26919150E+02\n'
p162
aS'  2.17257828E+01  1.82891803E+01  2.33864085E+00  1.53505284E+01  2.09604198E+01\n'
p163
aS'  2.06278363E+01  2.59456373E+00  9.37598976E-02  1.64169450E+03  3.43581160E+02\n'
p164
aS'  1.77219199E+03  2.04031079E+03  1.85161964E+03  3.67866574E+02  7.12934220E+01\n'
p165
aS'  4.90317952E+03  9.40505980E+01  1.63092814E+01  9.21192136E+01  1.13252061E+02\n'
p166
aS'  1.06076943E+02  1.76949863E+01  1.93248820E+00  3.12199113E+02  1.43076527E+01\n'
p167
aS'%FLAG BONDS_INC_HYDROGEN                                                        \n'
p168
aS'%FORMAT(10I8)                                                                   \n'
p169
aS'       0     171       2       3     168       2       6     165       2      15\n'
p170
aS'      18       2      36     159       8      36     162       8      39     153\n'
p171
aS'       9      39     156       9      42     147       9      42     150       9\n'
p172
aS'      45     141       9      45     144       9      48     135       9      48\n'
p173
aS'     138       9      57     132      11      60     126       8      60     129\n'
p174
aS'       8      63     120       9      63     123       9      72     117       2\n'
p175
aS'      78     111       2      81     108       2      87     105      18      93\n'
p176
aS'      96       9      93      99       9      93     102       9\n'
p177
aS'%FLAG BONDS_WITHOUT_HYDROGEN                                                    \n'
p178
aS'%FORMAT(10I8)                                                                   \n'
p179
aS'       0       3       1       0      15       1       3       6       1       6\n'
p180
aS'       9       1       9      12       1       9      30       3      12      15\n'
p181
aS'       1      12      21       3      21      24       4      21      27       5\n'
p182
aS'      27      30       5      27      36       6      30      33       4      36\n'
p183
aS'      39       7      39      42       7      42      45       7      45      48\n'
p184
aS'       7      48      51      10      51      54       4      51      57       5\n'
p185
aS'      57      60       6      60      63       7      63      66      12      66\n'
p186
aS'      69      13      66      90      14      69      72       1      69      84\n'
p187
aS'       1      72      75       1      75      78       1      75     114      15\n'
p188
aS'      78      81       1      81      84       1      84      87      16      87\n'
p189
aS'      90      17      90      93      19\n'
p190
aS'%FLAG ANGLES_INC_HYDROGEN                                                       \n'
p191
aS'%FORMAT(10I8)                                                                   \n'
p192
aS'       0       3     168       2       0      15      18       2       3       0\n'
p193
aS'     171       2       3       6     165       2       6       3     168       2\n'
p194
aS'       9       6     165       2      12      15      18       2      15       0\n'
p195
aS'     171       2      27      36     159      10      27      36     162      10\n'
p196
aS'      36      39     153      12      36      39     156      12      39      36\n'
p197
aS'     159      13      39      36     162      13      39      42     147      12\n'
p198
aS'      39      42     150      12      42      39     153      12      42      39\n'
p199
aS'     156      12      42      45     141      12      42      45     144      12\n'
p200
aS'      45      42     147      12      45      42     150      12      45      48\n'
p201
aS'     135      12      45      48     138      12      48      45     141      12\n'
p202
aS'      48      45     144      12      51      48     135      17      51      48\n'
p203
aS'     138      17      51      57     132      18      57      60     126      10\n'
p204
aS'      57      60     129      10      60      57     132      19      60      63\n'
p205
aS'     120      12      60      63     123      12      63      60     126      13\n'
p206
aS'      63      60     129      13      66      63     120      23      66      63\n'
p207
aS'     123      23      69      72     117       2      75      72     117       2\n'
p208
aS'      75      78     111       2      78      81     108       2      81      78\n'
p209
aS'     111       2      84      81     108       2      84      87     105      31\n'
p210
aS'      90      87     105      33      90      93      96      34      90      93\n'
p211
aS'      99      34      90      93     102      34      96      93      99      35\n'
p212
aS'      96      93     102      35      99      93     102      35     120      63\n'
p213
aS'     123      35     126      60     129      36     135      48     138      35\n'
p214
aS'     141      45     144      35     147      42     150      35     153      39\n'
p215
aS'     156      35     159      36     162      36\n'
p216
aS'%FLAG ANGLES_WITHOUT_HYDROGEN                                                   \n'
p217
aS'%FORMAT(10I8)                                                                   \n'
p218
aS'       0       3       6       1       0      15      12       1       3       0\n'
p219
aS'      15       1       3       6       9       1       6       9      12       1\n'
p220
aS'       6       9      30       3       9      12      15       1       9      12\n'
p221
aS'      21       3       9      30      27       4       9      30      33       5\n'
p222
aS'      12       9      30       3      12      21      24       5      12      21\n'
p223
aS'      27       4      15      12      21       3      21      27      30       6\n'
p224
aS'      21      27      36       7      24      21      27       8      27      30\n'
p225
aS'      33       8      27      36      39       9      30      27      36       7\n'
p226
aS'      36      39      42      11      39      42      45      11      42      45\n'
p227
aS'      48      11      45      48      51      14      48      51      54      15\n'
p228
aS'      48      51      57      16      51      57      60       7      54      51\n'
p229
aS'      57       8      57      60      63       9      60      63      66      20\n'
p230
aS'      63      66      69      21      63      66      90      22      66      69\n'
p231
aS'      72      24      66      69      84      24      66      90      87      25\n'
p232
aS'      66      90      93      26      69      66      90      27      69      72\n'
p233
aS'      75       1      69      84      81       1      69      84      87      28\n'
p234
aS'      72      69      84       1      72      75      78       1      72      75\n'
p235
aS'     114      29      75      78      81       1      78      75     114      29\n'
p236
aS'      78      81      84       1      81      84      87      28      84      87\n'
p237
aS'      90      30      87      90      93      32\n'
p238
aS'%FLAG DIHEDRALS_INC_HYDROGEN                                                    \n'
p239
aS'%FORMAT(10I8)                                                                   \n'
p240
aS'       0       3       6     165       1       3       0      15      18       1\n'
p241
aS'     171       0       3       6       1       9       6       3     168       1\n'
p242
aS'       9      12      15      18       1      12       9       6     165       1\n'
p243
aS'     171       0      15      12       1      15       0       3     168       1\n'
p244
aS'     171       0      15      18       1      18      15      12      21       1\n'
p245
aS'      21      27      36     159       6      21      27      36     162       6\n'
p246
aS'      27      36      39     153       7      27      36      39     156       7\n'
p247
aS'      30       9       6     165       1      30      27      36     159       6\n'
p248
aS'      30      27      36     162       6      36      39      42     147      11\n'
p249
aS'      36      39      42     150      11      39      42      45     141      11\n'
p250
aS'      39      42      45     144      11      42      39      36     159       7\n'
p251
aS'      42      39      36     162       7      42      45      48     135      11\n'
p252
aS'      42      45      48     138      11      45      42      39     153      11\n'
p253
aS'      45      42      39     156      11      48      45      42     147      11\n'
p254
aS'      48      45      42     150      11      48      51      57     132       2\n'
p255
aS'      51      48      45     141       7      51      48      45     144       7\n'
p256
aS'      51      57      60     126       6      51      57      60     129       6\n'
p257
aS'      54      51      48     135      15      54      51     -48     135      16\n'
p258
aS'      54      51      48     138      15      54      51     -48     138      16\n'
p259
aS'      54      51      57     132      17      54      51     -57     132       2\n'
p260
aS'      57      51      48     135      12      57      51      48     138      12\n'
p261
aS'      57      60      63     120       7      57      60      63     123       7\n'
p262
aS'      63      60      57     132       6      66      63      60     126       7\n'
p263
aS'      66      63      60     129       7      66      69      72     117       1\n'
p264
aS'      66      90      87     105      21      66      90      93      96      18\n'
p265
aS'      66      90      93      99      18      66      90      93     102      18\n'
p266
aS'      69      66      63     120      18      69      66      63     123      18\n'
p267
aS'      69      84      81     108       1      69      84      87     105      22\n'
p268
aS'      72      75      78     111       1      75      78      81     108       1\n'
p269
aS'      78      75      72     117       1      81      84      87     105      22\n'
p270
aS'      84      69      72     117       1      84      81      78     111       1\n'
p271
aS'      87      84      81     108       1      87      90      93      96      18\n'
p272
aS'      87      90      93      99      18      87      90      93     102      18\n'
p273
aS'      90      66      63     120      18      90      66      63     123      18\n'
p274
aS'      93      90      87     105      21     108      81      78     111       1\n'
p275
aS'     111      78      75     114       1     114      75      72     117       1\n'
p276
aS'     120      63      60     126       7     120      63      60     129       7\n'
p277
aS'     123      63      60     126       7     123      63      60     129       7\n'
p278
aS'     126      60      57     132       6     129      60      57     132       6\n'
p279
aS'     135      48      45     141      23     135      48      45     144      23\n'
p280
aS'     138      48      45     141      23     138      48      45     144      23\n'
p281
aS'     141      45      42     147      23     141      45      42     150      23\n'
p282
aS'     144      45      42     147      23     144      45      42     150      23\n'
p283
aS'     147      42      39     153      23     147      42      39     156      23\n'
p284
aS'     150      42      39     153      23     150      42      39     156      23\n'
p285
aS'     153      39      36     159       7     153      39      36     162       7\n'
p286
aS'     156      39      36     159       7     156      39      36     162       7\n'
p287
aS'     165       6       3     168       1     171       0       3     168       1\n'
p288
aS'     171       0     -15      -3      24       0       6      -3    -168      24\n'
p289
aS'       3       9      -6    -165      24       0      12     -15     -18      24\n'
p290
aS'      51      60     -57    -132      24      69      75     -72    -117      24\n'
p291
aS'      75      81     -78    -111      24      78      84     -81    -108      24\n'
p292
aS'      84      90     -87    -105      24\n'
p293
aS'%FLAG DIHEDRALS_WITHOUT_HYDROGEN                                                \n'
p294
aS'%FORMAT(10I8)                                                                   \n'
p295
aS'       0       3       6       9       1       0      15     -12       9       1\n'
p296
aS'       0      15      12      21       1       3       0      15      12       1\n'
p297
aS'       3       6      -9      12       1       3       6       9      30       1\n'
p298
aS'      15       0       3       6       1       6       9     -12      15       1\n'
p299
aS'       6       9      12      21       1       6       9      30      27       1\n'
p300
aS'       6       9      30      33       1       9      12      21      24       1\n'
p301
aS'       9      12     -21      27       1       9      30     -27      21       2\n'
p302
aS'       9      30      27      36       2      12       9     -30      27       1\n'
p303
aS'      12       9      30      33       1      12      21     -27      30       2\n'
p304
aS'      12      21      27      36       2      15      12       9      30       1\n'
p305
aS'      15      12      21      24       1      15      12      21      27       1\n'
p306
aS'      21      12      -9      30       1      21      27      30      33       2\n'
p307
aS'      21      27      36      39       3      21      27     -36      39       4\n'
p308
aS'      21      27     -36      39       5      24      21      27      30       2\n'
p309
aS'      24      21      27      36       2      27      36      39      42       7\n'
p310
aS'      30      27      36      39       3      30      27     -36      39       6\n'
p311
aS'      30      27     -36      39       4      30      27     -36      39       5\n'
p312
aS'      33      30      27      36       2      36      39      42      45       8\n'
p313
aS'      36      39     -42      45       9      36      39     -42      45      10\n'
p314
aS'      39      42      45      48       8      39      42     -45      48       9\n'
p315
aS'      39      42     -45      48      10      42      45      48      51       7\n'
p316
aS'      45      48      51      54      12      45      48      51      57      13\n'
p317
aS'      45      48     -51      57      14      48      51      57      60       2\n'
p318
aS'      51      57      60      63       3      51      57     -60      63       6\n'
p319
aS'      51      57     -60      63       4      51      57     -60      63       5\n'
p320
aS'      54      51      57      60       2      57      60      63      66       7\n'
p321
aS'      60      63      66      69      18      60      63      66      90      18\n'
p322
aS'      63      66      69      72      19      63      66      69      84      19\n'
p323
aS'      63      66      90      87      20      63      66      90      93      20\n'
p324
aS'      66      69      72      75       1      66      69      84      81       1\n'
p325
aS'      66      69     -84      87       1      66      90     -87      84      21\n'
p326
aS'      69      66     -90      87      20      69      66      90      93      20\n'
p327
aS'      69      72      75      78       1      69      72      75     114       1\n'
p328
aS'      69      84     -81      78       1      69      84     -87      90      22\n'
p329
aS'      72      69      66      90      19      72      69      84      81       1\n'
p330
aS'      72      69      84      87       1      72      75     -78      81       1\n'
p331
aS'      75      72      69      84       1      75      78     -81      84       1\n'
p332
aS'      78      81      84      87       1      81      78      75     114       1\n'
p333
aS'      81      84      87      90      22      84      69     -66      90      19\n'
p334
aS'      84      87      90      93      21      30       6      -9     -12      24\n'
p335
aS'      21       9     -12     -15      24      12      27     -21     -24      25\n'
p336
aS'      21      30     -27     -36      24       9      27     -30     -33      25\n'
p337
aS'      48      57     -51     -54      25      63      69     -66     -90      24\n'
p338
aS'      72      84     -69     -66      24      72      78     -75    -114      24\n'
p339
aS'      69      81     -84     -87      24      93      66     -90     -87      24\n'
p340
aS'%FLAG EXCLUDED_ATOMS_LIST                                                       \n'
p341
aS'%FORMAT(10I8)                                                                   \n'
p342
aS'       2       3       4       5       6       7       8      56      57      58\n'
p343
aS'       3       4       5       6       7      11      56      57      58       4\n'
p344
aS'       5       6       8      10      11      12      56      57      58       5\n'
p345
aS'       6       7       8       9      10      11      12      13      56      57\n'
p346
aS'       6       7       8       9      10      11      12      13      56      58\n'
p347
aS'       7       8       9      10      11      57      58       8      58       9\n'
p348
aS'      10      11      12      13      14      54      55      10      11      13\n'
p349
aS'      11      12      13      14      15      52      53      54      55      12\n'
p350
aS'      13      14      54      55      56      13      14      15      16      50\n'
p351
aS'      51      52      53      54      55      15      16      17      48      49\n'
p352
aS'      50      51      52      53      54      55      16      17      18      46\n'
p353
aS'      47      48      49      50      51      52      53      54      55      17\n'
p354
aS'      18      19      20      46      47      48      49      50      51      52\n'
p355
aS'      53      18      19      20      21      45      46      47      48      49\n'
p356
aS'      50      51      19      20      21      22      43      44      45      46\n'
p357
aS'      47      48      49      20      21      45      46      47      21      22\n'
p358
aS'      23      41      42      43      44      45      46      47      22      23\n'
p359
aS'      24      31      41      42      43      44      45      23      24      25\n'
p360
aS'      29      30      31      32      41      42      43      44      45      24\n'
p361
aS'      25      26      28      29      30      31      32      33      34      35\n'
p362
aS'      36      40      41      42      43      44      25      26      27      28\n'
p363
aS'      29      30      31      32      36      37      39      40      41      42\n'
p364
aS'      26      27      28      29      30      31      38      39      40      27\n'
p365
aS'      28      29      37      38      39      40      28      29      30      37\n'
p366
aS'      38      39      40      29      30      31      36      37      38      39\n'
p367
aS'      30      31      32      36      37      38      40      31      32      33\n'
p368
aS'      34      35      36      37      32      33      34      35      36      41\n'
p369
aS'      42      33      34      35      36      34      35      35       0       0\n'
p370
aS'      38      39      40       0      42      43      44      43      44      44\n'
p371
aS'      45      45       0      47      48      49      48      49      49      50\n'
p372
aS'      51      50      51      51      52      53      52      53      53      54\n'
p373
aS'      55      54      55      55       0      57      58       0\n'
p374
aS'%FLAG HBOND_ACOEF                                                               \n'
p375
aS'%FORMAT(5E16.8)                                                                 \n'
p376
aS'\n'
aS'%FLAG HBOND_BCOEF                                                               \n'
p377
aS'%FORMAT(5E16.8)                                                                 \n'
p378
aS'\n'
aS'%FLAG HBCUT                                                                     \n'
p379
aS'%FORMAT(5E16.8)                                                                 \n'
p380
aS'\n'
aS'%FLAG AMBER_ATOM_TYPE                                                           \n'
p381
aS'%FORMAT(20a4)                                                                   \n'
p382
aS'ca  ca  ca  ca  ca  ca  ha  c   o   n   c   o   c3  c3  c3  c3  c3  c   o   n   \n'
p383
aS'c3  c3  cc  ca  ca  ca  ca  ca  ca  na  cd  c3  hc  hc  hc  hn  ha  ha  br  ha  \n'
p384
aS'hc  hc  h1  h1  hn  hc  hc  hc  hc  hc  hc  hc  hc  h1  h1  ha  ha  ha  \n'
p385
aS'%FLAG TREE_CHAIN_CLASSIFICATION                                                 \n'
p386
aS'%FORMAT(20a4)                                                                   \n'
p387
aS'BLA BLA BLA BLA BLA BLA BLA BLA BLA BLA BLA BLA BLA BLA BLA BLA BLA BLA BLA BLA \n'
p388
aS'BLA BLA BLA BLA BLA BLA BLA BLA BLA BLA BLA BLA BLA BLA BLA BLA BLA BLA BLA BLA \n'
p389
aS'BLA BLA BLA BLA BLA BLA BLA BLA BLA BLA BLA BLA BLA BLA BLA BLA BLA BLA \n'
p390
aS'%FLAG JOIN_ARRAY                                                                \n'
p391
aS'%FORMAT(10I8)                                                                   \n'
p392
aS'       0       0       0       0       0       0       0       0       0       0\n'
p393
aS'       0       0       0       0       0       0       0       0       0       0\n'
p394
aS'       0       0       0       0       0       0       0       0       0       0\n'
p395
aS'       0       0       0       0       0       0       0       0       0       0\n'
p396
aS'       0       0       0       0       0       0       0       0       0       0\n'
p397
aS'       0       0       0       0       0       0       0       0\n'
p398
aS'%FLAG IROTAT                                                                    \n'
p399
aS'%FORMAT(10I8)                                                                   \n'
p400
aS'       0       0       0       0       0       0       0       0       0       0\n'
p401
aS'       0       0       0       0       0       0       0       0       0       0\n'
p402
aS'       0       0       0       0       0       0       0       0       0       0\n'
p403
aS'       0       0       0       0       0       0       0       0       0       0\n'
p404
aS'       0       0       0       0       0       0       0       0       0       0\n'
p405
aS'       0       0       0       0       0       0       0       0\n'
p406
aS'%FLAG RADII                                                                     \n'
p407
aS'%FORMAT(5E16.8)                                                                 \n'
p408
aS'  1.70000000E+00  1.70000000E+00  1.70000000E+00  1.70000000E+00  1.70000000E+00\n'
p409
aS'  1.70000000E+00  1.30000000E+00  1.70000000E+00  1.50000000E+00  1.55000000E+00\n'
p410
aS'  1.70000000E+00  1.50000000E+00  1.70000000E+00  1.70000000E+00  1.70000000E+00\n'
p411
aS'  1.70000000E+00  1.70000000E+00  1.70000000E+00  1.50000000E+00  1.55000000E+00\n'
p412
aS'  1.70000000E+00  1.70000000E+00  1.70000000E+00  1.70000000E+00  1.70000000E+00\n'
p413
aS'  1.70000000E+00  1.70000000E+00  1.70000000E+00  1.70000000E+00  1.55000000E+00\n'
p414
aS'  1.70000000E+00  1.70000000E+00  1.30000000E+00  1.30000000E+00  1.30000000E+00\n'
p415
aS'  1.30000000E+00  1.30000000E+00  1.30000000E+00  1.50000000E+00  1.30000000E+00\n'
p416
aS'  1.30000000E+00  1.30000000E+00  1.30000000E+00  1.30000000E+00  1.30000000E+00\n'
p417
aS'  1.30000000E+00  1.30000000E+00  1.30000000E+00  1.30000000E+00  1.30000000E+00\n'
p418
aS'  1.30000000E+00  1.30000000E+00  1.30000000E+00  1.30000000E+00  1.30000000E+00\n'
p419
aS'  1.30000000E+00  1.30000000E+00  1.30000000E+00\n'
p420
aS'%FLAG SCREEN                                                                    \n'
p421
aS'%FORMAT(5E16.8)                                                                 \n'
p422
aS'  7.20000000E-01  7.20000000E-01  7.20000000E-01  7.20000000E-01  7.20000000E-01\n'
p423
aS'  7.20000000E-01  8.50000000E-01  7.20000000E-01  8.50000000E-01  7.90000000E-01\n'
p424
aS'  7.20000000E-01  8.50000000E-01  7.20000000E-01  7.20000000E-01  7.20000000E-01\n'
p425
aS'  7.20000000E-01  7.20000000E-01  7.20000000E-01  8.50000000E-01  7.90000000E-01\n'
p426
aS'  7.20000000E-01  7.20000000E-01  7.20000000E-01  7.20000000E-01  7.20000000E-01\n'
p427
aS'  7.20000000E-01  7.20000000E-01  7.20000000E-01  7.20000000E-01  7.90000000E-01\n'
p428
aS'  7.20000000E-01  7.20000000E-01  8.50000000E-01  8.50000000E-01  8.50000000E-01\n'
p429
aS'  8.50000000E-01  8.50000000E-01  8.50000000E-01  8.00000000E-01  8.50000000E-01\n'
p430
aS'  8.50000000E-01  8.50000000E-01  8.50000000E-01  8.50000000E-01  8.50000000E-01\n'
p431
aS'  8.50000000E-01  8.50000000E-01  8.50000000E-01  8.50000000E-01  8.50000000E-01\n'
p432
aS'  8.50000000E-01  8.50000000E-01  8.50000000E-01  8.50000000E-01  8.50000000E-01\n'
p433
aS'  8.50000000E-01  8.50000000E-01  8.50000000E-01\n'
p434
asS'extOld'
p435
S'.pdb'
p436
sS'chargeType'
p437
S'bcc'
p438
sS'parmchkLog'
p439
S''
sS'resName'
p440
S'LIG'
p441
sS'chargeVal'
p442
S'0'
sS'inputFile'
p443
S'Ligand.mol2'
p444
sS'absHomeDir'
p445
S'/home/boincadm/projects/DrugDiscovery/Ligand.acpypi'
p446
sS'outTopols'
p447
(lp448
S'gmx'
p449
aS'cns'
p450
aS'charmm'
p451
asS'rootDir'
p452
S'/home/boincadm/projects/DrugDiscovery'
p453
sS'acFrcmodFileName'
p454
S'Ligand_AC.frcmod'
p455
sS'timeTol'
p456
I120
sS'molTopol'
p457
(i__main__
MolTopol
p458
(dp459
S'CnsParFileName'
p460
S'/home/boincadm/projects/DrugDiscovery/Ligand.acpypi/Ligand_CNS.par'
p461
sS'xyzFileData'
p462
(lp463
S'Ligand.pdb\n'
p464
aS'    58\n'
p465
aS'  37.6610000  40.8700000  38.9280000  38.6270000  41.6200000  38.2250000\n'
p466
aS'  39.8420000  41.9660000  38.8250000  40.0520000  41.5340000  40.1200000\n'
p467
aS'  39.1040000  40.8030000  40.8100000  37.8940000  40.4550000  40.2430000\n'
p468
aS'  37.1580000  39.8810000  40.7970000  39.6390000  40.5360000  42.1430000\n'
p469
aS'  39.0220000  39.9640000  43.0200000  40.8960000  41.0770000  42.1760000\n'
p470
aS'  41.2010000  41.7150000  41.0040000  42.2030000  42.3310000  40.6950000\n'
p471
aS'  41.7620000  41.0620000  43.3430000  42.9510000  40.1290000  43.1550000\n'
p472
aS'  44.1400000  40.8330000  42.4860000  45.4140000  39.9790000  42.4950000\n'
p473
aS'  46.5960000  40.6930000  41.8360000  47.2180000  41.7910000  42.6820000\n'
p474
aS'  46.5820000  42.4720000  43.4780000  48.5620000  41.9810000  42.4170000\n'
p475
aS'  49.2870000  43.1480000  42.9020000  50.8090000  43.1080000  42.7300000\n'
p476
aS'  51.4920000  41.9760000  43.4460000  51.5850000  41.8000000  44.8680000\n'
p477
aS'  51.1530000  42.5500000  45.9810000  51.3780000  42.0490000  47.2690000\n'
p478
aS'  52.0270000  40.8340000  47.4690000  52.4650000  40.0750000  46.3810000\n'
p479
aS'  52.2280000  40.5840000  45.0990000  52.5230000  40.0440000  43.8710000\n'
p480
aS'  52.0760000  40.8620000  42.8650000  52.2130000  40.4750000  41.4400000\n'
p481
aS'  52.1360000  39.3940000  41.3100000  51.4360000  40.9350000  40.8270000\n'
p482
aS'  53.1820000  40.8050000  41.0590000  52.9700000  39.1480000  43.7400000\n'
p483
aS'  52.9510000  39.1170000  46.5320000  52.1910000  40.4570000  48.4760000\n'
p484
aS'  50.7700000  43.0310000  48.7680000  50.6390000  43.4950000  45.8380000\n'
p485
aS'  51.0280000  43.0100000  41.6590000  51.2540000  44.0580000  43.0360000\n'
p486
aS'  49.0530000  43.2400000  43.9690000  48.8630000  44.0210000  42.3920000\n'
p487
aS'  48.9430000  41.5170000  41.6040000  47.3590000  39.9670000  41.5470000\n'
p488
aS'  46.2430000  41.1780000  40.9170000  45.6910000  39.7490000  43.5280000\n'
p489
aS'  45.2240000  39.0170000  42.0070000  44.3220000  41.7840000  42.9990000\n'
p490
aS'  43.8930000  41.0950000  41.4560000  42.6500000  39.2360000  42.5990000\n'
p491
aS'  43.2340000  39.7560000  44.1340000  42.1190000  42.0830000  43.5160000\n'
p492
aS'  41.1750000  40.7390000  44.2070000  40.5940000  42.5430000  38.3000000\n'
p493
aS'  38.4210000  41.9310000  37.2020000  36.7230000  40.6130000  38.4390000\n'
p494
asS'properDihedralsCoefRB'
p495
(lp496
(lp497
(lp498
(i__main__
Atom
p499
(dp500
S'resid'
p501
I0
sS'atomName'
p502
S'C1'
p503
sS'charge'
p504
F-0.1138
sS'atomType'
p505
(i__main__
AtomType
p506
(dp507
S'BCOEF'
p508
F531.10286399999995
sS'atomTypeName'
p509
S'ca'
p510
sS'ACOEF'
p511
F819971.66200000001
sS'mass'
p512
F12.01
sbsg512
F12.01
sS'coords'
p513
(lp514
F37.661000000000001
aF40.869999999999997
aF38.927999999999997
asS'id'
p515
I1
sba(i__main__
Atom
p516
(dp517
g501
I0
sg502
S'C2'
p518
sg504
F-0.11649999999999999
sg505
(i__main__
AtomType
p519
(dp520
g508
F531.10286399999995
sg509
S'ca'
p521
sg511
F819971.66200000001
sg512
F12.01
sbsg512
F12.01
sg513
(lp522
F38.627000000000002
aF41.619999999999997
aF38.225000000000001
asg515
I2
sba(i__main__
Atom
p523
(dp524
g501
I0
sg502
S'C3'
p525
sg504
F-0.061199999999999991
sg505
(i__main__
AtomType
p526
(dp527
g508
F531.10286399999995
sg509
S'ca'
p528
sg511
F819971.66200000001
sg512
F12.01
sbsg512
F12.01
sg513
(lp529
F39.841999999999999
aF41.966000000000001
aF38.825000000000003
asg515
I3
sba(i__main__
Atom
p530
(dp531
g501
I0
sg502
S'H24'
p532
sg504
F0.15609999999999999
sg505
(i__main__
AtomType
p533
(dp534
g508
F18.519658799999998
sg509
S'ha'
p535
sg511
F5716.29601
sg512
F1.008
sbsg512
F1.008
sg513
(lp536
F40.594000000000001
aF42.542999999999999
aF38.299999999999997
asg515
I56
sbaa(lp537
F30.334
aF0
aF-30.334
aF0
aF0
aF0
aaa(lp538
(lp539
g516
ag499
a(i__main__
Atom
p540
(dp541
g501
I0
sg502
S'C6'
p542
sg504
F-0.060499999999999998
sg505
(i__main__
AtomType
p543
(dp544
g508
F531.10286399999995
sg509
S'ca'
p545
sg511
F819971.66200000001
sg512
F12.01
sbsg512
F12.01
sg513
(lp546
F37.893999999999998
aF40.454999999999998
aF40.243000000000002
asg515
I6
sba(i__main__
Atom
p547
(dp548
g501
I0
sg502
S'H1'
p549
sg504
F0.16149999999999998
sg505
(i__main__
AtomType
p550
(dp551
g508
F18.519658799999998
sg509
S'ha'
p552
sg511
F5716.29601
sg512
F1.008
sbsg512
F1.008
sg513
(lp553
F37.158000000000001
aF39.881
aF40.796999999999997
asg515
I7
sbaa(lp554
F30.334
aF0
aF-30.334
aF0
aF0
aF0
aaa(lp555
(lp556
(i__main__
Atom
p557
(dp558
g501
I0
sg502
S'H26'
p559
sg504
F0.14659999999999998
sg505
(i__main__
AtomType
p560
(dp561
g508
F18.519658799999998
sg509
S'ha'
p562
sg511
F5716.29601
sg512
F1.008
sbsg512
F1.008
sg513
(lp563
F36.722999999999999
aF40.613
aF38.439
asg515
I58
sbag499
ag516
ag523
aa(lp564
F30.334
aF0
aF-30.334
aF0
aF0
aF0
aaa(lp565
(lp566
(i__main__
Atom
p567
(dp568
g501
I0
sg502
S'C4'
p569
sg504
F-0.14460000000000001
sg505
(i__main__
AtomType
p570
(dp571
g508
F531.10286399999995
sg509
S'ca'
p572
sg511
F819971.66200000001
sg512
F12.01
sbsg512
F12.01
sg513
(lp573
F40.052
aF41.533999999999999
aF40.119999999999997
asg515
I4
sbag523
ag516
a(i__main__
Atom
p574
(dp575
g501
I0
sg502
S'H25'
p576
sg504
F0.1462
sg505
(i__main__
AtomType
p577
(dp578
g508
F18.519658799999998
sg509
S'ha'
p579
sg511
F5716.29601
sg512
F1.008
sbsg512
F1.008
sg513
(lp580
F38.420999999999999
aF41.930999999999997
aF37.201999999999998
asg515
I57
sbaa(lp581
F30.334
aF0
aF-30.334
aF0
aF0
aF0
aaa(lp582
(lp583
g567
a(i__main__
Atom
p584
(dp585
g501
I0
sg502
S'C5'
p586
sg504
F-0.13930000000000001
sg505
(i__main__
AtomType
p587
(dp588
g508
F531.10286399999995
sg509
S'ca'
p589
sg511
F819971.66200000001
sg512
F12.01
sbsg512
F12.01
sg513
(lp590
F39.103999999999999
aF40.802999999999997
aF40.810000000000002
asg515
I5
sbag540
ag547
aa(lp591
F30.334
aF0
aF-30.334
aF0
aF0
aF0
aaa(lp592
(lp593
g584
ag567
ag523
ag530
aa(lp594
F30.334
aF0
aF-30.334
aF0
aF0
aF0
aaa(lp595
(lp596
g557
ag499
ag540
ag584
aa(lp597
F30.334
aF0
aF-30.334
aF0
aF0
aF0
aaa(lp598
(lp599
g540
ag499
ag516
ag574
aa(lp600
F30.334
aF0
aF-30.334
aF0
aF0
aF0
aaa(lp601
(lp602
g557
ag499
ag540
ag547
aa(lp603
F30.334
aF0
aF-30.334
aF0
aF0
aF0
aaa(lp604
(lp605
g547
ag540
ag584
a(i__main__
Atom
p606
(dp607
g501
I0
sg502
S'C7'
p608
sg504
F0.72269999945122176
sg505
(i__main__
AtomType
p609
(dp610
g508
F531.10286399999995
sg509
S'c'
sg511
F819971.66200000001
sg512
F12.01
sbsg512
F12.01
sg513
(lp611
F39.639000000000003
aF40.536000000000001
aF42.143000000000001
asg515
I8
sbaa(lp612
F30.334
aF0
aF-30.334
aF0
aF0
aF0
aaa(lp613
(lp614
g606
a(i__main__
Atom
p615
(dp616
g501
I0
sg502
S'N1'
p617
sg504
F-0.52049999999999996
sg505
(i__main__
AtomType
p618
(dp619
g508
F801.32352900000001
sg509
S'n'
sg511
F944293.23300000001
sg512
F14.01
sbsg512
F14.01
sg513
(lp620
F40.896000000000001
aF41.076999999999998
aF42.176000000000002
asg515
I10
sba(i__main__
Atom
p621
(dp622
g501
I0
sg502
S'C9'
p623
sg504
F0.104
sg505
(i__main__
AtomType
p624
(dp625
g508
F675.61224700000002
sg509
S'c3'
p626
sg511
F1043080.23
sg512
F12.01
sbsg512
F12.01
sg513
(lp627
F41.762
aF41.061999999999998
aF43.343000000000004
asg515
I13
sba(i__main__
Atom
p628
(dp629
g501
I0
sg502
S'H22'
p630
sg504
F0.069099999999999995
sg505
(i__main__
AtomType
p631
(dp632
g508
F14.3076527
sg509
S'h1'
p633
sg511
F3259.69625
sg512
F1.008
sbsg512
F1.008
sg513
(lp634
F42.119
aF42.082999999999998
aF43.515999999999998
asg515
I54
sbaa(lp635
F0
aF0
aF0
aF0
aF0
aF0
aaa(lp636
(lp637
g606
ag615
ag621
a(i__main__
Atom
p638
(dp639
g501
I0
sg502
S'H23'
p640
sg504
F0.059999999999999991
sg505
(i__main__
AtomType
p641
(dp642
g508
F14.3076527
sg509
S'h1'
p643
sg511
F3259.69625
sg512
F1.008
sbsg512
F1.008
sg513
(lp644
F41.174999999999997
aF40.738999999999997
aF44.207000000000001
asg515
I55
sbaa(lp645
F0
aF0
aF0
aF0
aF0
aF0
aaa(lp646
(lp647
g615
ag621
a(i__main__
Atom
p648
(dp649
g501
I0
sg502
S'C10'
p650
sg504
F-0.1007
sg505
(i__main__
AtomType
p651
(dp652
g508
F675.61224700000002
sg509
S'c3'
p653
sg511
F1043080.23
sg512
F12.01
sbsg512
F12.01
sg513
(lp654
F42.951000000000001
aF40.128999999999998
aF43.155000000000001
asg515
I14
sba(i__main__
Atom
p655
(dp656
g501
I0
sg502
S'H20'
p657
sg504
F0.0625
sg505
(i__main__
AtomType
p658
(dp659
g508
F21.725782800000001
sg509
S'hc'
p660
sg511
F7516.0770300000004
sg512
F1.008
sbsg512
F1.008
sg513
(lp661
F42.649999999999999
aF39.235999999999997
aF42.598999999999997
asg515
I52
sbaa(lp662
F0.65084444630400007
aF1.9525333389120001
aF0
aF-2.6033777852160003
aF0
aF0
aaa(lp663
(lp664
g615
ag621
ag648
a(i__main__
Atom
p665
(dp666
g501
I0
sg502
S'H21'
p667
sg504
F0.057200000000000001
sg505
(i__main__
AtomType
p668
(dp669
g508
F21.725782800000001
sg509
S'hc'
p670
sg511
F7516.0770300000004
sg512
F1.008
sbsg512
F1.008
sg513
(lp671
F43.234000000000002
aF39.756
aF44.134
asg515
I53
sbaa(lp672
F0.65084444630400007
aF1.9525333389120001
aF0
aF-2.6033777852160003
aF0
aF0
aaa(lp673
(lp674
(i__main__
Atom
p675
(dp676
g501
I0
sg502
S'C8'
p677
sg504
F0.73789999945122209
sg505
(i__main__
AtomType
p678
(dp679
g508
F531.10286399999995
sg509
S'c'
sg511
F819971.66200000001
sg512
F12.01
sbsg512
F12.01
sg513
(lp680
F41.201000000000001
aF41.715000000000003
aF41.003999999999998
asg515
I11
sbag567
ag523
ag530
aa(lp681
F30.334
aF0
aF-30.334
aF0
aF0
aF0
aaa(lp682
(lp683
g675
ag615
ag621
ag628
aa(lp684
F0
aF0
aF0
aF0
aF0
aF0
aaa(lp685
(lp686
g675
ag615
ag621
ag638
aa(lp687
F0
aF0
aF0
aF0
aF0
aF0
aaa(lp688
(lp689
g621
ag648
a(i__main__
Atom
p690
(dp691
g501
I0
sg502
S'C11'
p692
sg504
F-0.0843
sg505
(i__main__
AtomType
p693
(dp694
g508
F675.61224700000002
sg509
S'c3'
p695
sg511
F1043080.23
sg512
F12.01
sbsg512
F12.01
sg513
(lp696
F44.140000000000001
aF40.832999999999998
aF42.485999999999997
asg515
I15
sba(i__main__
Atom
p697
(dp698
g501
I0
sg502
S'H18'
p699
sg504
F0.047300000000000002
sg505
(i__main__
AtomType
p700
(dp701
g508
F21.725782800000001
sg509
S'hc'
p702
sg511
F7516.0770300000004
sg512
F1.008
sbsg512
F1.008
sg513
(lp703
F44.322000000000003
aF41.783999999999999
aF42.999000000000002
asg515
I50
sbaa(lp704
F0.66944000000000004
aF2.0083200000000003
aF0
aF-2.6777600000000001
aF0
aF0
aaa(lp705
(lp706
g621
ag648
ag690
a(i__main__
Atom
p707
(dp708
g501
I0
sg502
S'H19'
p709
sg504
F0.039699999999999999
sg505
(i__main__
AtomType
p710
(dp711
g508
F21.725782800000001
sg509
S'hc'
p712
sg511
F7516.0770300000004
sg512
F1.008
sbsg512
F1.008
sg513
(lp713
F43.893000000000001
aF41.094999999999999
aF41.456000000000003
asg515
I51
sbaa(lp714
F0.66944000000000004
aF2.0083200000000003
aF0
aF-2.6777600000000001
aF0
aF0
aaa(lp715
(lp716
g648
ag690
a(i__main__
Atom
p717
(dp718
g501
I0
sg502
S'C12'
p719
sg504
F-0.076300000000000007
sg505
(i__main__
AtomType
p720
(dp721
g508
F675.61224700000002
sg509
S'c3'
p722
sg511
F1043080.23
sg512
F12.01
sbsg512
F12.01
sg513
(lp723
F45.414000000000001
aF39.978999999999999
aF42.494999999999997
asg515
I16
sba(i__main__
Atom
p724
(dp725
g501
I0
sg502
S'H16'
p726
sg504
F0.067799999999999999
sg505
(i__main__
AtomType
p727
(dp728
g508
F21.725782800000001
sg509
S'hc'
p729
sg511
F7516.0770300000004
sg512
F1.008
sbsg512
F1.008
sg513
(lp730
F45.691000000000003
aF39.749000000000002
aF43.527999999999999
asg515
I48
sbaa(lp731
F0.66944000000000004
aF2.0083200000000003
aF0
aF-2.6777600000000001
aF0
aF0
aaa(lp732
(lp733
g648
ag690
ag717
a(i__main__
Atom
p734
(dp735
g501
I0
sg502
S'H17'
p736
sg504
F0.046699999999999998
sg505
(i__main__
AtomType
p737
(dp738
g508
F21.725782800000001
sg509
S'hc'
p739
sg511
F7516.0770300000004
sg512
F1.008
sbsg512
F1.008
sg513
(lp740
F45.223999999999997
aF39.017000000000003
aF42.006999999999998
asg515
I49
sbaa(lp741
F0.66944000000000004
aF2.0083200000000003
aF0
aF-2.6777600000000001
aF0
aF0
aaa(lp742
(lp743
g690
ag648
ag621
ag628
aa(lp744
F0.65084444630400007
aF1.9525333389120001
aF0
aF-2.6033777852160003
aF0
aF0
aaa(lp745
(lp746
g690
ag648
ag621
ag638
aa(lp747
F0.65084444630400007
aF1.9525333389120001
aF0
aF-2.6033777852160003
aF0
aF0
aaa(lp748
(lp749
g690
ag717
a(i__main__
Atom
p750
(dp751
g501
I0
sg502
S'C13'
p752
sg504
F-0.14849999999999999
sg505
(i__main__
AtomType
p753
(dp754
g508
F675.61224700000002
sg509
S'c3'
p755
sg511
F1043080.23
sg512
F12.01
sbsg512
F12.01
sg513
(lp756
F46.595999999999997
aF40.692999999999998
aF41.835999999999999
asg515
I17
sba(i__main__
Atom
p757
(dp758
g501
I0
sg502
S'H14'
p759
sg504
F0.075400000000000009
sg505
(i__main__
AtomType
p760
(dp761
g508
F21.725782800000001
sg509
S'hc'
p762
sg511
F7516.0770300000004
sg512
F1.008
sbsg512
F1.008
sg513
(lp763
F47.359000000000002
aF39.966999999999999
aF41.546999999999997
asg515
I46
sbaa(lp764
F0.66944000000000004
aF2.0083200000000003
aF0
aF-2.6777600000000001
aF0
aF0
aaa(lp765
(lp766
g690
ag717
ag750
a(i__main__
Atom
p767
(dp768
g501
I0
sg502
S'H15'
p769
sg504
F0.051999999999999998
sg505
(i__main__
AtomType
p770
(dp771
g508
F21.725782800000001
sg509
S'hc'
p772
sg511
F7516.0770300000004
sg512
F1.008
sbsg512
F1.008
sg513
(lp773
F46.243000000000002
aF41.177999999999997
aF40.917000000000002
asg515
I47
sbaa(lp774
F0.66944000000000004
aF2.0083200000000003
aF0
aF-2.6777600000000001
aF0
aF0
aaa(lp775
(lp776
g717
ag690
ag648
ag655
aa(lp777
F0.66944000000000004
aF2.0083200000000003
aF0
aF-2.6777600000000001
aF0
aF0
aaa(lp778
(lp779
g717
ag690
ag648
ag665
aa(lp780
F0.66944000000000004
aF2.0083200000000003
aF0
aF-2.6777600000000001
aF0
aF0
aaa(lp781
(lp782
g750
ag717
ag690
ag697
aa(lp783
F0.66944000000000004
aF2.0083200000000003
aF0
aF-2.6777600000000001
aF0
aF0
aaa(lp784
(lp785
g750
ag717
ag690
ag707
aa(lp786
F0.66944000000000004
aF2.0083200000000003
aF0
aF-2.6777600000000001
aF0
aF0
aaa(lp787
(lp788
g750
a(i__main__
Atom
p789
(dp790
g501
I0
sg502
S'C14'
p791
sg504
F0.65360000109755623
sg505
(i__main__
AtomType
p792
(dp793
g508
F531.10286399999995
sg509
S'c'
sg511
F819971.66200000001
sg512
F12.01
sbsg512
F12.01
sg513
(lp794
F47.218000000000004
aF41.790999999999997
aF42.682000000000002
asg515
I18
sba(i__main__
Atom
p795
(dp796
g501
I0
sg502
S'N2'
p797
sg504
F-0.56060000109755626
sg505
(i__main__
AtomType
p798
(dp799
g508
F801.32352900000001
sg509
S'n'
sg511
F944293.23300000001
sg512
F14.01
sbsg512
F14.01
sg513
(lp800
F48.561999999999998
aF41.981000000000002
aF42.417000000000002
asg515
I20
sba(i__main__
Atom
p801
(dp802
g501
I0
sg502
S'H13'
p803
sg504
F0.31370000000000003
sg505
(i__main__
AtomType
p804
(dp805
g508
F0.093759897600000003
sg509
S'hn'
p806
sg511
F0.139982777
sg512
F1.008
sbsg512
F1.008
sg513
(lp807
F48.942999999999998
aF41.517000000000003
aF41.603999999999999
asg515
I45
sbaa(lp808
F20.920000000000002
aF0
aF-20.920000000000002
aF0
aF0
aF0
aaa(lp809
(lp810
g789
ag750
ag717
ag724
aa(lp811
F0.65084444630400007
aF1.9525333389120001
aF0
aF-2.6033777852160003
aF0
aF0
aaa(lp812
(lp813
g789
ag750
ag717
ag734
aa(lp814
F0.65084444630400007
aF1.9525333389120001
aF0
aF-2.6033777852160003
aF0
aF0
aaa(lp815
(lp816
g789
ag795
a(i__main__
Atom
p817
(dp818
g501
I0
sg502
S'C15'
p819
sg504
F0.092299999999999993
sg505
(i__main__
AtomType
p820
(dp821
g508
F675.61224700000002
sg509
S'c3'
p822
sg511
F1043080.23
sg512
F12.01
sbsg512
F12.01
sg513
(lp823
F49.286999999999999
aF43.148000000000003
aF42.902000000000001
asg515
I21
sba(i__main__
Atom
p824
(dp825
g501
I0
sg502
S'H11'
p826
sg504
F0.039899999999999998
sg505
(i__main__
AtomType
p827
(dp828
g508
F14.3076527
sg509
S'h1'
p829
sg511
F3259.69625
sg512
F1.008
sbsg512
F1.008
sg513
(lp830
F49.052999999999997
aF43.240000000000002
aF43.969000000000001
asg515
I43
sbaa(lp831
F0
aF0
aF0
aF0
aF0
aF0
aaa(lp832
(lp833
g789
ag795
ag817
a(i__main__
Atom
p834
(dp835
g501
I0
sg502
S'H12'
p836
sg504
F0.079799999999999996
sg505
(i__main__
AtomType
p837
(dp838
g508
F14.3076527
sg509
S'h1'
p839
sg511
F3259.69625
sg512
F1.008
sbsg512
F1.008
sg513
(lp840
F48.863
aF44.021000000000001
aF42.392000000000003
asg515
I44
sbaa(lp841
F0
aF0
aF0
aF0
aF0
aF0
aaa(lp842
(lp843
(i__main__
Atom
p844
(dp845
g501
I0
sg502
S'O3'
p846
sg504
F-0.62039999890244368
sg505
(i__main__
AtomType
p847
(dp848
g508
F564.88598400000001
sg509
S'o'
sg511
F379876.39899999998
sg512
F16
sbsg512
F16
sg513
(lp849
F46.582000000000001
aF42.472000000000001
aF43.478000000000002
asg515
I19
sbag789
ag750
ag757
aa(lp850
F3.6819200000000003
aF-4.3513600000000006
aF0
aF1.3388800000000001
aF0
aF0
aaa(lp851
(lp852
g844
ag789
ag750
ag767
aa(lp853
F3.6819200000000003
aF-4.3513600000000006
aF0
aF1.3388800000000001
aF0
aF0
aaa(lp854
(lp855
g844
ag789
ag795
ag801
aa(lp856
F29.288000000000004
aF-8.3680000000000003
aF-20.920000000000002
aF0
aF0
aF0
aaa(lp857
(lp858
g795
ag789
ag750
ag757
aa(lp859
F0
aF0
aF0
aF0
aF0
aF0
aaa(lp860
(lp861
g795
ag789
ag750
ag767
aa(lp862
F0
aF0
aF0
aF0
aF0
aF0
aaa(lp863
(lp864
g795
ag817
a(i__main__
Atom
p865
(dp866
g501
I0
sg502
S'C16'
p867
sg504
F-0.032799999999999996
sg505
(i__main__
AtomType
p868
(dp869
g508
F675.61224700000002
sg509
S'c3'
p870
sg511
F1043080.23
sg512
F12.01
sbsg512
F12.01
sg513
(lp871
F50.808999999999997
aF43.107999999999997
aF42.729999999999997
asg515
I22
sba(i__main__
Atom
p872
(dp873
g501
I0
sg502
S'H9'
p874
sg504
F0.053100000000000001
sg505
(i__main__
AtomType
p875
(dp876
g508
F21.725782800000001
sg509
S'hc'
p877
sg511
F7516.0770300000004
sg512
F1.008
sbsg512
F1.008
sg513
(lp878
F51.027999999999999
aF43.009999999999998
aF41.658999999999999
asg515
I41
sbaa(lp879
F0.65084444630400007
aF1.9525333389120001
aF0
aF-2.6033777852160003
aF0
aF0
aaa(lp880
(lp881
g795
ag817
ag865
a(i__main__
Atom
p882
(dp883
g501
I0
sg502
S'H10'
p884
sg504
F0.056800000000000003
sg505
(i__main__
AtomType
p885
(dp886
g508
F21.725782800000001
sg509
S'hc'
p887
sg511
F7516.0770300000004
sg512
F1.008
sbsg512
F1.008
sg513
(lp888
F51.253999999999998
aF44.058
aF43.036000000000001
asg515
I42
sbaa(lp889
F0.65084444630400007
aF1.9525333389120001
aF0
aF-2.6033777852160003
aF0
aF0
aaa(lp890
(lp891
g865
ag817
ag795
ag801
aa(lp892
F0
aF0
aF0
aF0
aF0
aF0
aaa(lp893
(lp894
(i__main__
Atom
p895
(dp896
g501
I0
sg502
S'C17'
p897
sg504
F-0.1515
sg505
(i__main__
AtomType
p898
(dp899
g508
F531.10286399999995
sg509
S'cc'
p900
sg511
F819971.66200000001
sg512
F12.01
sbsg512
F12.01
sg513
(lp901
F51.491999999999997
aF41.975999999999999
aF43.445999999999998
asg515
I23
sbag865
ag817
ag824
aa(lp902
F0.65084444630400007
aF1.9525333389120001
aF0
aF-2.6033777852160003
aF0
aF0
aaa(lp903
(lp904
g895
ag865
ag817
ag834
aa(lp905
F0.65084444630400007
aF1.9525333389120001
aF0
aF-2.6033777852160003
aF0
aF0
aaa(lp906
(lp907
g895
a(i__main__
Atom
p908
(dp909
g501
I0
sg502
S'C18'
p910
sg504
F-0.096599999999999991
sg505
(i__main__
AtomType
p911
(dp912
g508
F531.10286399999995
sg509
S'ca'
p913
sg511
F819971.66200000001
sg512
F12.01
sbsg512
F12.01
sg513
(lp914
F51.585000000000001
aF41.799999999999997
aF44.868000000000002
asg515
I24
sba(i__main__
Atom
p915
(dp916
g501
I0
sg502
S'C19'
p917
sg504
F-0.057899999999999993
sg505
(i__main__
AtomType
p918
(dp919
g508
F531.10286399999995
sg509
S'ca'
p920
sg511
F819971.66200000001
sg512
F12.01
sbsg512
F12.01
sg513
(lp921
F51.152999999999999
aF42.549999999999997
aF45.981000000000002
asg515
I25
sba(i__main__
Atom
p922
(dp923
g501
I0
sg502
S'H8'
p924
sg504
F0.14699999999999999
sg505
(i__main__
AtomType
p925
(dp926
g508
F18.519658799999998
sg509
S'ha'
p927
sg511
F5716.29601
sg512
F1.008
sbsg512
F1.008
sg513
(lp928
F50.639000000000003
aF43.494999999999997
aF45.838000000000001
asg515
I40
sbaa(lp929
F30.334
aF0
aF-30.334
aF0
aF0
aF0
aaa(lp930
(lp931
g895
a(i__main__
Atom
p932
(dp933
g501
I0
sg502
S'C24'
p934
sg504
F-0.038099999999999995
sg505
(i__main__
AtomType
p935
(dp936
g508
F531.10286399999995
sg509
S'cd'
p937
sg511
F819971.66200000001
sg512
F12.01
sbsg512
F12.01
sg513
(lp938
F52.076000000000001
aF40.862000000000002
aF42.865000000000002
asg515
I31
sba(i__main__
Atom
p939
(dp940
g501
I0
sg502
S'N3'
p941
sg504
F-0.17509999999999998
sg505
(i__main__
AtomType
p942
(dp943
g508
F801.32352900000001
sg509
S'na'
p944
sg511
F944293.23300000001
sg512
F14.01
sbsg512
F14.01
sg513
(lp945
F52.523000000000003
aF40.043999999999997
aF43.871000000000002
asg515
I30
sba(i__main__
Atom
p946
(dp947
g501
I0
sg502
S'H5'
p948
sg504
F0.31719999999999998
sg505
(i__main__
AtomType
p949
(dp950
g508
F0.093759897600000003
sg509
S'hn'
p951
sg511
F0.139982777
sg512
F1.008
sbsg512
F1.008
sg513
(lp952
F52.969999999999999
aF39.148000000000003
aF43.740000000000002
asg515
I36
sbaa(lp953
F14.2256
aF0
aF-14.2256
aF0
aF0
aF0
aaa(lp954
(lp955
g895
ag932
a(i__main__
Atom
p956
(dp957
g501
I0
sg502
S'C25'
p958
sg504
F-0.053699999999999998
sg505
(i__main__
AtomType
p959
(dp960
g508
F675.61224700000002
sg509
S'c3'
p961
sg511
F1043080.23
sg512
F12.01
sbsg512
F12.01
sg513
(lp962
F52.213000000000001
aF40.475000000000001
aF41.439999999999998
asg515
I32
sba(i__main__
Atom
p963
(dp964
g501
I0
sg502
S'H2'
p965
sg504
F0.059799999999999999
sg505
(i__main__
AtomType
p966
(dp967
g508
F21.725782800000001
sg509
S'hc'
p968
sg511
F7516.0770300000004
sg512
F1.008
sbsg512
F1.008
sg513
(lp969
F52.136000000000003
aF39.393999999999998
aF41.310000000000002
asg515
I33
sbaa(lp970
F0
aF0
aF0
aF0
aF0
aF0
aaa(lp971
(lp972
g895
ag932
ag956
a(i__main__
Atom
p973
(dp974
g501
I0
sg502
S'H3'
p975
sg504
F0.060199999999999997
sg505
(i__main__
AtomType
p976
(dp977
g508
F21.725782800000001
sg509
S'hc'
p978
sg511
F7516.0770300000004
sg512
F1.008
sbsg512
F1.008
sg513
(lp979
F51.436
aF40.935000000000002
aF40.826999999999998
asg515
I34
sbaa(lp980
F0
aF0
aF0
aF0
aF0
aF0
aaa(lp981
(lp982
g895
ag932
ag956
a(i__main__
Atom
p983
(dp984
g501
I0
sg502
S'H4'
p985
sg504
F0.055799999999999995
sg505
(i__main__
AtomType
p986
(dp987
g508
F21.725782800000001
sg509
S'hc'
p988
sg511
F7516.0770300000004
sg512
F1.008
sbsg512
F1.008
sg513
(lp989
F53.182000000000002
aF40.805
aF41.058999999999997
asg515
I35
sbaa(lp990
F0
aF0
aF0
aF0
aF0
aF0
aaa(lp991
(lp992
g908
ag895
ag865
ag872
aa(lp993
F0
aF0
aF0
aF0
aF0
aF0
aaa(lp994
(lp995
g908
ag895
ag865
ag882
aa(lp996
F0
aF0
aF0
aF0
aF0
aF0
aaa(lp997
(lp998
g908
a(i__main__
Atom
p999
(dp1000
g501
I0
sg502
S'C23'
p1001
sg504
F-0.037999999999999999
sg505
(i__main__
AtomType
p1002
(dp1003
g508
F531.10286399999995
sg509
S'ca'
p1004
sg511
F819971.66200000001
sg512
F12.01
sbsg512
F12.01
sg513
(lp1005
F52.228000000000002
aF40.584000000000003
aF45.098999999999997
asg515
I29
sba(i__main__
Atom
p1006
(dp1007
g501
I0
sg502
S'C22'
p1008
sg504
F-0.14460000000000001
sg505
(i__main__
AtomType
p1009
(dp1010
g508
F531.10286399999995
sg509
S'ca'
p1011
sg511
F819971.66200000001
sg512
F12.01
sbsg512
F12.01
sg513
(lp1012
F52.465000000000003
aF40.075000000000003
aF46.381
asg515
I28
sba(i__main__
Atom
p1013
(dp1014
g501
I0
sg502
S'H6'
p1015
sg504
F0.13519999999999999
sg505
(i__main__
AtomType
p1016
(dp1017
g508
F18.519658799999998
sg509
S'ha'
p1018
sg511
F5716.29601
sg512
F1.008
sbsg512
F1.008
sg513
(lp1019
F52.951000000000001
aF39.116999999999997
aF46.531999999999996
asg515
I37
sbaa(lp1020
F30.334
aF0
aF-30.334
aF0
aF0
aF0
aaa(lp1021
(lp1022
g908
ag999
ag939
ag946
aa(lp1023
F2.5104000000000002
aF0
aF-2.5104000000000002
aF0
aF0
aF0
aaa(lp1024
(lp1025
g915
a(i__main__
Atom
p1026
(dp1027
g501
I0
sg502
S'C20'
p1028
sg504
F-0.055299999999999995
sg505
(i__main__
AtomType
p1029
(dp1030
g508
F531.10286399999995
sg509
S'ca'
p1031
sg511
F819971.66200000001
sg512
F12.01
sbsg512
F12.01
sg513
(lp1032
F51.378
aF42.048999999999999
aF47.268999999999998
asg515
I26
sba(i__main__
Atom
p1033
(dp1034
g501
I0
sg502
S'C21'
p1035
sg504
F-0.094
sg505
(i__main__
AtomType
p1036
(dp1037
g508
F531.10286399999995
sg509
S'ca'
p1038
sg511
F819971.66200000001
sg512
F12.01
sbsg512
F12.01
sg513
(lp1039
F52.027000000000001
aF40.834000000000003
aF47.469000000000001
asg515
I27
sba(i__main__
Atom
p1040
(dp1041
g501
I0
sg502
S'H7'
p1042
sg504
F0.14230000000000001
sg505
(i__main__
AtomType
p1043
(dp1044
g508
F18.519658799999998
sg509
S'ha'
p1045
sg511
F5716.29601
sg512
F1.008
sbsg512
F1.008
sg513
(lp1046
F52.191000000000003
aF40.457000000000001
aF48.475999999999999
asg515
I38
sbaa(lp1047
F30.334
aF0
aF-30.334
aF0
aF0
aF0
aaa(lp1048
(lp1049
g1026
ag1033
ag1006
ag1013
aa(lp1050
F30.334
aF0
aF-30.334
aF0
aF0
aF0
aaa(lp1051
(lp1052
g1033
ag1026
ag915
ag922
aa(lp1053
F30.334
aF0
aF-30.334
aF0
aF0
aF0
aaa(lp1054
(lp1055
g1006
ag999
ag939
ag946
aa(lp1056
F2.5104000000000002
aF0
aF-2.5104000000000002
aF0
aF0
aF0
aaa(lp1057
(lp1058
g999
ag908
ag915
ag922
aa(lp1059
F30.334
aF0
aF-30.334
aF0
aF0
aF0
aaa(lp1060
(lp1061
g999
ag1006
ag1033
ag1040
aa(lp1062
F30.334
aF0
aF-30.334
aF0
aF0
aF0
aaa(lp1063
(lp1064
g939
ag999
ag1006
ag1013
aa(lp1065
F30.334
aF0
aF-30.334
aF0
aF0
aF0
aaa(lp1066
(lp1067
g939
ag932
ag956
ag963
aa(lp1068
F0
aF0
aF0
aF0
aF0
aF0
aaa(lp1069
(lp1070
g939
ag932
ag956
ag973
aa(lp1071
F0
aF0
aF0
aF0
aF0
aF0
aaa(lp1072
(lp1073
g939
ag932
ag956
ag983
aa(lp1074
F0
aF0
aF0
aF0
aF0
aF0
aaa(lp1075
(lp1076
g932
ag895
ag865
ag872
aa(lp1077
F0
aF0
aF0
aF0
aF0
aF0
aaa(lp1078
(lp1079
g932
ag895
ag865
ag882
aa(lp1080
F0
aF0
aF0
aF0
aF0
aF0
aaa(lp1081
(lp1082
g956
ag932
ag939
ag946
aa(lp1083
F14.2256
aF0
aF-14.2256
aF0
aF0
aF0
aaa(lp1084
(lp1085
g1013
ag1006
ag1033
ag1040
aa(lp1086
F30.334
aF0
aF-30.334
aF0
aF0
aF0
aaa(lp1087
(lp1088
g1040
ag1033
ag1026
a(i__main__
Atom
p1089
(dp1090
g501
I0
sg502
S'Br1'
p1091
sg504
F-0.1016
sg505
(i__main__
AtomType
p1092
(dp1093
g508
F4903.1795199999997
sg509
S'br'
p1094
sg511
F18782163.600000001
sg512
F79.900000000000006
sbsg512
F79.900000000000006
sg513
(lp1095
F50.770000000000003
aF43.030999999999999
aF48.768000000000001
asg515
I39
sbaa(lp1096
F30.334
aF0
aF-30.334
aF0
aF0
aF0
aaa(lp1097
(lp1098
g1089
ag1026
ag915
ag922
aa(lp1099
F30.334
aF0
aF-30.334
aF0
aF0
aF0
aaa(lp1100
(lp1101
g872
ag865
ag817
ag824
aa(lp1102
F0.65084444630400007
aF1.9525333389120001
aF0
aF-2.6033777852160003
aF0
aF0
aaa(lp1103
(lp1104
g872
ag865
ag817
ag834
aa(lp1105
F0.65084444630400007
aF1.9525333389120001
aF0
aF-2.6033777852160003
aF0
aF0
aaa(lp1106
(lp1107
g882
ag865
ag817
ag824
aa(lp1108
F0.65084444630400007
aF1.9525333389120001
aF0
aF-2.6033777852160003
aF0
aF0
aaa(lp1109
(lp1110
g882
ag865
ag817
ag834
aa(lp1111
F0.65084444630400007
aF1.9525333389120001
aF0
aF-2.6033777852160003
aF0
aF0
aaa(lp1112
(lp1113
g824
ag817
ag795
ag801
aa(lp1114
F0
aF0
aF0
aF0
aF0
aF0
aaa(lp1115
(lp1116
g834
ag817
ag795
ag801
aa(lp1117
F0
aF0
aF0
aF0
aF0
aF0
aaa(lp1118
(lp1119
g757
ag750
ag717
ag724
aa(lp1120
F0.62760000000000005
aF1.8828
aF0
aF-2.5104000000000002
aF0
aF0
aaa(lp1121
(lp1122
g757
ag750
ag717
ag734
aa(lp1123
F0.62760000000000005
aF1.8828
aF0
aF-2.5104000000000002
aF0
aF0
aaa(lp1124
(lp1125
g767
ag750
ag717
ag724
aa(lp1126
F0.62760000000000005
aF1.8828
aF0
aF-2.5104000000000002
aF0
aF0
aaa(lp1127
(lp1128
g767
ag750
ag717
ag734
aa(lp1129
F0.62760000000000005
aF1.8828
aF0
aF-2.5104000000000002
aF0
aF0
aaa(lp1130
(lp1131
g724
ag717
ag690
ag697
aa(lp1132
F0.62760000000000005
aF1.8828
aF0
aF-2.5104000000000002
aF0
aF0
aaa(lp1133
(lp1134
g724
ag717
ag690
ag707
aa(lp1135
F0.62760000000000005
aF1.8828
aF0
aF-2.5104000000000002
aF0
aF0
aaa(lp1136
(lp1137
g734
ag717
ag690
ag697
aa(lp1138
F0.62760000000000005
aF1.8828
aF0
aF-2.5104000000000002
aF0
aF0
aaa(lp1139
(lp1140
g734
ag717
ag690
ag707
aa(lp1141
F0.62760000000000005
aF1.8828
aF0
aF-2.5104000000000002
aF0
aF0
aaa(lp1142
(lp1143
g697
ag690
ag648
ag655
aa(lp1144
F0.62760000000000005
aF1.8828
aF0
aF-2.5104000000000002
aF0
aF0
aaa(lp1145
(lp1146
g697
ag690
ag648
ag665
aa(lp1147
F0.62760000000000005
aF1.8828
aF0
aF-2.5104000000000002
aF0
aF0
aaa(lp1148
(lp1149
g707
ag690
ag648
ag655
aa(lp1150
F0.62760000000000005
aF1.8828
aF0
aF-2.5104000000000002
aF0
aF0
aaa(lp1151
(lp1152
g707
ag690
ag648
ag665
aa(lp1153
F0.62760000000000005
aF1.8828
aF0
aF-2.5104000000000002
aF0
aF0
aaa(lp1154
(lp1155
g655
ag648
ag621
ag628
aa(lp1156
F0.65084444630400007
aF1.9525333389120001
aF0
aF-2.6033777852160003
aF0
aF0
aaa(lp1157
(lp1158
g655
ag648
ag621
ag638
aa(lp1159
F0.65084444630400007
aF1.9525333389120001
aF0
aF-2.6033777852160003
aF0
aF0
aaa(lp1160
(lp1161
g665
ag648
ag621
ag628
aa(lp1162
F0.65084444630400007
aF1.9525333389120001
aF0
aF-2.6033777852160003
aF0
aF0
aaa(lp1163
(lp1164
g665
ag648
ag621
ag638
aa(lp1165
F0.65084444630400007
aF1.9525333389120001
aF0
aF-2.6033777852160003
aF0
aF0
aaa(lp1166
(lp1167
g530
ag523
ag516
ag574
aa(lp1168
F30.334
aF0
aF-30.334
aF0
aF0
aF0
aaa(lp1169
(lp1170
g557
ag499
ag516
ag574
aa(lp1171
F30.334
aF0
aF-30.334
aF0
aF0
aF0
aaa(lp1172
(lp1173
g499
ag516
ag523
ag567
aa(lp1174
F30.334
aF0
aF-30.334
aF0
aF0
aF0
aaa(lp1175
(lp1176
g499
ag540
ag584
ag567
aa(lp1177
F30.334
aF0
aF-30.334
aF0
aF0
aF0
aaa(lp1178
(lp1179
g499
ag540
ag584
ag606
aa(lp1180
F30.334
aF0
aF-30.334
aF0
aF0
aF0
aaa(lp1181
(lp1182
g516
ag499
ag540
ag584
aa(lp1183
F30.334
aF0
aF-30.334
aF0
aF0
aF0
aaa(lp1184
(lp1185
g516
ag523
ag567
ag584
aa(lp1186
F30.334
aF0
aF-30.334
aF0
aF0
aF0
aaa(lp1187
(lp1188
g516
ag523
ag567
ag675
aa(lp1189
F30.334
aF0
aF-30.334
aF0
aF0
aF0
aaa(lp1190
(lp1191
g540
ag499
ag516
ag523
aa(lp1192
F30.334
aF0
aF-30.334
aF0
aF0
aF0
aaa(lp1193
(lp1194
g523
ag567
ag584
ag540
aa(lp1195
F30.334
aF0
aF-30.334
aF0
aF0
aF0
aaa(lp1196
(lp1197
g523
ag567
ag584
ag606
aa(lp1198
F30.334
aF0
aF-30.334
aF0
aF0
aF0
aaa(lp1199
(lp1200
g523
ag567
ag675
ag615
aa(lp1201
F30.334
aF0
aF-30.334
aF0
aF0
aF0
aaa(lp1202
(lp1203
g523
ag567
ag675
a(i__main__
Atom
p1204
(dp1205
g501
I0
sg502
S'O2'
p1206
sg504
F-0.6129000016463344
sg505
(i__main__
AtomType
p1207
(dp1208
g508
F564.88598400000001
sg509
S'o'
sg511
F379876.39899999998
sg512
F16
sbsg512
F16
sg513
(lp1209
F42.203000000000003
aF42.331000000000003
aF40.695
asg515
I12
sbaa(lp1210
F30.334
aF0
aF-30.334
aF0
aF0
aF0
aaa(lp1211
(lp1212
g567
ag584
ag606
a(i__main__
Atom
p1213
(dp1214
g501
I0
sg502
S'O1'
p1215
sg504
F-0.56009999835366564
sg505
(i__main__
AtomType
p1216
(dp1217
g508
F564.88598400000001
sg509
S'o'
sg511
F379876.39899999998
sg512
F16
sbsg512
F16
sg513
(lp1218
F39.021999999999998
aF39.963999999999999
aF43.020000000000003
asg515
I9
sbaa(lp1219
F30.334
aF0
aF-30.334
aF0
aF0
aF0
aaa(lp1220
(lp1221
g567
ag584
ag606
ag615
aa(lp1222
F30.334
aF0
aF-30.334
aF0
aF0
aF0
aaa(lp1223
(lp1224
g567
ag675
ag615
ag606
aa(lp1225
F20.920000000000002
aF0
aF-20.920000000000002
aF0
aF0
aF0
aaa(lp1226
(lp1227
g567
ag675
ag615
ag621
aa(lp1228
F20.920000000000002
aF0
aF-20.920000000000002
aF0
aF0
aF0
aaa(lp1229
(lp1230
g584
ag567
ag675
ag615
aa(lp1231
F30.334
aF0
aF-30.334
aF0
aF0
aF0
aaa(lp1232
(lp1233
g584
ag567
ag675
ag1204
aa(lp1234
F30.334
aF0
aF-30.334
aF0
aF0
aF0
aaa(lp1235
(lp1236
g584
ag606
ag615
ag675
aa(lp1237
F20.920000000000002
aF0
aF-20.920000000000002
aF0
aF0
aF0
aaa(lp1238
(lp1239
g584
ag606
ag615
ag621
aa(lp1240
F20.920000000000002
aF0
aF-20.920000000000002
aF0
aF0
aF0
aaa(lp1241
(lp1242
g540
ag584
ag567
ag675
aa(lp1243
F30.334
aF0
aF-30.334
aF0
aF0
aF0
aaa(lp1244
(lp1245
g540
ag584
ag606
ag1213
aa(lp1246
F30.334
aF0
aF-30.334
aF0
aF0
aF0
aaa(lp1247
(lp1248
g540
ag584
ag606
ag615
aa(lp1249
F30.334
aF0
aF-30.334
aF0
aF0
aF0
aaa(lp1250
(lp1251
g606
ag584
ag567
ag675
aa(lp1252
F30.334
aF0
aF-30.334
aF0
aF0
aF0
aaa(lp1253
(lp1254
g606
ag615
ag675
ag1204
aa(lp1255
F20.920000000000002
aF0
aF-20.920000000000002
aF0
aF0
aF0
aaa(lp1256
(lp1257
g606
ag615
ag621
ag648
aa(lp1258
F2.8451200000000005
aF-4.10032
aF16.736000000000001
aF2.5104000000000002
aF-16.736000000000001
aF0
aaa(lp1259
(lp1260
g1213
ag606
ag615
ag675
aa(lp1261
F20.920000000000002
aF0
aF-20.920000000000002
aF0
aF0
aF0
aaa(lp1262
(lp1263
g1213
ag606
ag615
ag621
aa(lp1264
F20.920000000000002
aF0
aF-20.920000000000002
aF0
aF0
aF0
aaa(lp1265
(lp1266
g615
ag621
ag648
ag690
aa(lp1267
F0.65084444630400007
aF1.9525333389120001
aF0
aF-2.6033777852160003
aF0
aF0
aaa(lp1268
(lp1269
g675
ag615
ag621
ag648
aa(lp1270
F2.8451200000000005
aF-4.10032
aF16.736000000000001
aF2.5104000000000002
aF-16.736000000000001
aF0
aaa(lp1271
(lp1272
g1204
ag675
ag615
ag621
aa(lp1273
F20.920000000000002
aF0
aF-20.920000000000002
aF0
aF0
aF0
aaa(lp1274
(lp1275
g621
ag648
ag690
ag717
aa(lp1276
F3.6819200000000003
aF3.0961600000000002
aF-2.0920000000000001
aF-3.01248
aF0
aF0
aaa(lp1277
(lp1278
g648
ag690
ag717
ag750
aa(lp1279
F3.6819200000000003
aF3.0961600000000002
aF-2.0920000000000001
aF-3.01248
aF0
aF0
aaa(lp1280
(lp1281
g690
ag717
ag750
ag789
aa(lp1282
F0.65084444630400007
aF1.9525333389120001
aF0
aF-2.6033777852160003
aF0
aF0
aaa(lp1283
(lp1284
g717
ag750
ag789
ag844
aa(lp1285
F0
aF0
aF0
aF0
aF0
aF0
aaa(lp1286
(lp1287
g717
ag750
ag789
ag795
aa(lp1288
F0.8368000000000001
aF0
aF-2.7614400000000003
aF0
aF3.3472000000000004
aF0
aaa(lp1289
(lp1290
g750
ag789
ag795
ag817
aa(lp1291
F20.920000000000002
aF0
aF-20.920000000000002
aF0
aF0
aF0
aaa(lp1292
(lp1293
g789
ag795
ag817
ag865
aa(lp1294
F2.8451200000000005
aF-4.10032
aF16.736000000000001
aF2.5104000000000002
aF-16.736000000000001
aF0
aaa(lp1295
(lp1296
g844
ag789
ag795
ag817
aa(lp1297
F20.920000000000002
aF0
aF-20.920000000000002
aF0
aF0
aF0
aaa(lp1298
(lp1299
g795
ag817
ag865
ag895
aa(lp1300
F0.65084444630400007
aF1.9525333389120001
aF0
aF-2.6033777852160003
aF0
aF0
aaa(lp1301
(lp1302
g817
ag865
ag895
ag908
aa(lp1303
F0
aF0
aF0
aF0
aF0
aF0
aaa(lp1304
(lp1305
g817
ag865
ag895
ag932
aa(lp1306
F0
aF0
aF0
aF0
aF0
aF0
aaa(lp1307
(lp1308
g865
ag895
ag908
ag915
aa(lp1309
F21.3384
aF0
aF-21.3384
aF0
aF0
aF0
aaa(lp1310
(lp1311
g865
ag895
ag908
ag999
aa(lp1312
F21.3384
aF0
aF-21.3384
aF0
aF0
aF0
aaa(lp1313
(lp1314
g865
ag895
ag932
ag939
aa(lp1315
F33.472000000000001
aF0
aF-33.472000000000001
aF0
aF0
aF0
aaa(lp1316
(lp1317
g865
ag895
ag932
ag956
aa(lp1318
F33.472000000000001
aF0
aF-33.472000000000001
aF0
aF0
aF0
aaa(lp1319
(lp1320
g895
ag908
ag915
ag1026
aa(lp1321
F30.334
aF0
aF-30.334
aF0
aF0
aF0
aaa(lp1322
(lp1323
g895
ag908
ag999
ag1006
aa(lp1324
F30.334
aF0
aF-30.334
aF0
aF0
aF0
aaa(lp1325
(lp1326
g895
ag908
ag999
ag939
aa(lp1327
F30.334
aF0
aF-30.334
aF0
aF0
aF0
aaa(lp1328
(lp1329
g895
ag932
ag939
ag999
aa(lp1330
F14.2256
aF0
aF-14.2256
aF0
aF0
aF0
aaa(lp1331
(lp1332
g908
ag895
ag932
ag939
aa(lp1333
F33.472000000000001
aF0
aF-33.472000000000001
aF0
aF0
aF0
aaa(lp1334
(lp1335
g908
ag895
ag932
ag956
aa(lp1336
F33.472000000000001
aF0
aF-33.472000000000001
aF0
aF0
aF0
aaa(lp1337
(lp1338
g908
ag915
ag1026
ag1033
aa(lp1339
F30.334
aF0
aF-30.334
aF0
aF0
aF0
aaa(lp1340
(lp1341
g908
ag915
ag1026
ag1089
aa(lp1342
F30.334
aF0
aF-30.334
aF0
aF0
aF0
aaa(lp1343
(lp1344
g908
ag999
ag1006
ag1033
aa(lp1345
F30.334
aF0
aF-30.334
aF0
aF0
aF0
aaa(lp1346
(lp1347
g908
ag999
ag939
ag932
aa(lp1348
F2.5104000000000002
aF0
aF-2.5104000000000002
aF0
aF0
aF0
aaa(lp1349
(lp1350
g915
ag908
ag895
ag932
aa(lp1351
F21.3384
aF0
aF-21.3384
aF0
aF0
aF0
aaa(lp1352
(lp1353
g915
ag908
ag999
ag1006
aa(lp1354
F30.334
aF0
aF-30.334
aF0
aF0
aF0
aaa(lp1355
(lp1356
g915
ag908
ag999
ag939
aa(lp1357
F30.334
aF0
aF-30.334
aF0
aF0
aF0
aaa(lp1358
(lp1359
g915
ag1026
ag1033
ag1006
aa(lp1360
F30.334
aF0
aF-30.334
aF0
aF0
aF0
aaa(lp1361
(lp1362
g1026
ag915
ag908
ag999
aa(lp1363
F30.334
aF0
aF-30.334
aF0
aF0
aF0
aaa(lp1364
(lp1365
g1026
ag1033
ag1006
ag999
aa(lp1366
F30.334
aF0
aF-30.334
aF0
aF0
aF0
aaa(lp1367
(lp1368
g1033
ag1006
ag999
ag939
aa(lp1369
F30.334
aF0
aF-30.334
aF0
aF0
aF0
aaa(lp1370
(lp1371
g1006
ag1033
ag1026
ag1089
aa(lp1372
F30.334
aF0
aF-30.334
aF0
aF0
aF0
aaa(lp1373
(lp1374
g1006
ag999
ag939
ag932
aa(lp1375
F2.5104000000000002
aF0
aF-2.5104000000000002
aF0
aF0
aF0
aaa(lp1376
(lp1377
g999
ag908
ag895
ag932
aa(lp1378
F21.3384
aF0
aF-21.3384
aF0
aF0
aF0
aaa(lp1379
(lp1380
g999
ag939
ag932
ag956
aa(lp1381
F14.2256
aF0
aF-14.2256
aF0
aF0
aF0
aaasg443
g444
sS'totalCharge'
p1382
I0
sS'CnsInpFileName'
p1383
S'/home/boincadm/projects/DrugDiscovery/Ligand.acpypi/Ligand_CNS.inp'
p1384
sg10
(lp1385
S'%VERSION  VERSION_STAMP = V0001.000  DATE = 01/28/10  18:26:02                  \n'
p1386
aS'%FLAG TITLE                                                                     \n'
p1387
aS'%FORMAT(20a4)                                                                   \n'
p1388
aS'Ligand.pdb                                                                      \n'
p1389
aS'%FLAG POINTERS                                                                  \n'
p1390
aS'%FORMAT(10I8)                                                                   \n'
p1391
aS'      58       9      26      35      59      49     105      90       0       0\n'
p1392
aS'     318       1      35      49      90      19      36      25      13       0\n'
p1393
aS'       0       0       0       0       0       0       0       0      58       0\n'
p1394
aS'       0\n'
p1395
aS'%FLAG ATOM_NAME                                                                 \n'
p1396
aS'%FORMAT(20a4)                                                                   \n'
p1397
aS'C1  C2  C3  C4  C5  C6  H1  C7  O1  N1  C8  O2  C9  C10 C11 C12 C13 C14 O3  N2  \n'
p1398
aS'C15 C16 C17 C18 C19 C20 C21 C22 C23 N3  C24 C25 H2  H3  H4  H5  H6  H7  Br1 H8  \n'
p1399
aS'H9  H10 H11 H12 H13 H14 H15 H16 H17 H18 H19 H20 H21 H22 H23 H24 H25 H26 \n'
p1400
aS'%FLAG CHARGE                                                                    \n'
p1401
aS'%FORMAT(5E16.8)                                                                 \n'
p1402
aS' -2.07369774E+00 -2.12289795E+00 -1.11520476E+00 -2.63494458E+00 -2.53836639E+00\n'
p1403
aS' -1.10244915E+00  2.94290145E+00  1.31692562E+01 -1.02063102E+01 -9.48470715E+00\n'
p1404
aS'  1.34462352E+01 -1.11684477E+01  1.89511920E+00 -1.83498561E+00 -1.53613989E+00\n'
p1405
aS' -1.39036149E+00 -2.70601155E+00  1.19100953E+01 -1.13051149E+01 -1.02154214E+01\n'
p1406
aS'  1.68191829E+00 -5.97691440E-01 -2.76067845E+00 -1.76027418E+00 -1.05507117E+00\n'
p1407
aS' -1.00769319E+00 -1.71289620E+00 -2.63494458E+00 -6.92447400E-01 -3.19072473E+00\n'
p1408
aS' -6.94269630E-01 -9.78537510E-01  1.08969354E+00  1.09698246E+00  1.01680434E+00\n'
p1409
aS'  5.78011356E+00  2.46365496E+00  2.59303329E+00 -1.85138568E+00  2.67867810E+00\n'
p1410
aS'  9.67604130E-01  1.03502664E+00  7.27069770E-01  1.45413954E+00  5.71633551E+00\n'
p1411
aS'  1.37396142E+00  9.47559600E-01  1.23547194E+00  8.50981410E-01  8.61914790E-01\n'
p1412
aS'  7.23425310E-01  1.13889375E+00  1.04231556E+00  1.25916093E+00  1.09333800E+00\n'
p1413
aS'  2.84450103E+00  2.66410026E+00  2.67138918E+00\n'
p1414
aS'%FLAG MASS                                                                      \n'
p1415
aS'%FORMAT(5E16.8)                                                                 \n'
p1416
aS'  1.20100000E+01  1.20100000E+01  1.20100000E+01  1.20100000E+01  1.20100000E+01\n'
p1417
aS'  1.20100000E+01  1.00800000E+00  1.20100000E+01  1.60000000E+01  1.40100000E+01\n'
p1418
aS'  1.20100000E+01  1.60000000E+01  1.20100000E+01  1.20100000E+01  1.20100000E+01\n'
p1419
aS'  1.20100000E+01  1.20100000E+01  1.20100000E+01  1.60000000E+01  1.40100000E+01\n'
p1420
aS'  1.20100000E+01  1.20100000E+01  1.20100000E+01  1.20100000E+01  1.20100000E+01\n'
p1421
aS'  1.20100000E+01  1.20100000E+01  1.20100000E+01  1.20100000E+01  1.40100000E+01\n'
p1422
aS'  1.20100000E+01  1.20100000E+01  1.00800000E+00  1.00800000E+00  1.00800000E+00\n'
p1423
aS'  1.00800000E+00  1.00800000E+00  1.00800000E+00  7.99000000E+01  1.00800000E+00\n'
p1424
aS'  1.00800000E+00  1.00800000E+00  1.00800000E+00  1.00800000E+00  1.00800000E+00\n'
p1425
aS'  1.00800000E+00  1.00800000E+00  1.00800000E+00  1.00800000E+00  1.00800000E+00\n'
p1426
aS'  1.00800000E+00  1.00800000E+00  1.00800000E+00  1.00800000E+00  1.00800000E+00\n'
p1427
aS'  1.00800000E+00  1.00800000E+00  1.00800000E+00\n'
p1428
aS'%FLAG ATOM_TYPE_INDEX                                                           \n'
p1429
aS'%FORMAT(10I8)                                                                   \n'
p1430
aS'       1       1       1       1       1       1       2       1       3       4\n'
p1431
aS'       1       3       5       5       5       5       5       1       3       4\n'
p1432
aS'       5       5       1       1       1       1       1       1       1       4\n'
p1433
aS'       1       5       6       6       6       7       2       2       8       2\n'
p1434
aS'       6       6       9       9       7       6       6       6       6       6\n'
p1435
aS'       6       6       6       9       9       2       2       2\n'
p1436
aS'%FLAG NUMBER_EXCLUDED_ATOMS                                                     \n'
p1437
aS'%FORMAT(10I8)                                                                   \n'
p1438
aS'      10       9      10      11      10       7       2       8       3       9\n'
p1439
aS'       6       1       9      11      13      12      11      11       5      10\n'
p1440
aS'       9      12      17      14       9       7       7       7       7       7\n'
p1441
aS'       7       4       2       1       1       1       1       1       1       1\n'
p1442
aS'       3       2       2       1       1       3       2       3       2       3\n'
p1443
aS'       2       3       2       1       1       1       1       1\n'
p1444
aS'%FLAG NONBONDED_PARM_INDEX                                                      \n'
p1445
aS'%FORMAT(10I8)                                                                   \n'
p1446
aS'       1       2       4       7      11      16      22      29      37       2\n'
p1447
aS'       3       5       8      12      17      23      30      38       4       5\n'
p1448
aS'       6       9      13      18      24      31      39       7       8       9\n'
p1449
aS'      10      14      19      25      32      40      11      12      13      14\n'
p1450
aS'      15      20      26      33      41      16      17      18      19      20\n'
p1451
aS'      21      27      34      42      22      23      24      25      26      27\n'
p1452
aS'      28      35      43      29      30      31      32      33      34      35\n'
p1453
aS'      36      44      37      38      39      40      41      42      43      44\n'
p1454
aS'      45\n'
p1455
aS'%FLAG RESIDUE_LABEL                                                             \n'
p1456
aS'%FORMAT(20a4)                                                                   \n'
p1457
aS'LIG \n'
p1458
aS'%FLAG RESIDUE_POINTER                                                           \n'
p1459
aS'%FORMAT(10I8)                                                                   \n'
p1460
aS'       1\n'
p1461
aS'%FLAG BOND_FORCE_CONSTANT                                                       \n'
p1462
aS'%FORMAT(5E16.8)                                                                 \n'
p1463
aS'  4.78400000E+02  3.44300000E+02  3.49700000E+02  6.48000000E+02  4.78200000E+02\n'
p1464
aS'  3.30600000E+02  3.03100000E+02  3.35900000E+02  3.37300000E+02  3.28300000E+02\n'
p1465
aS'  4.10200000E+02  3.37300000E+02  4.11700000E+02  5.04000000E+02  2.69600000E+02\n'
p1466
aS'  4.70300000E+02  4.38800000E+02  4.06600000E+02  3.37300000E+02\n'
p1467
aS'%FLAG BOND_EQUIL_VALUE                                                          \n'
p1468
aS'%FORMAT(5E16.8)                                                                 \n'
p1469
aS'  1.38700000E+00  1.08700000E+00  1.48700000E+00  1.21400000E+00  1.34500000E+00\n'
p1470
aS'  1.46000000E+00  1.53500000E+00  1.09300000E+00  1.09200000E+00  1.50800000E+00\n'
p1471
aS'  1.00900000E+00  1.49900000E+00  1.43400000E+00  1.37100000E+00  1.89700000E+00\n'
p1472
aS'  1.35000000E+00  1.37100000E+00  1.01100000E+00  1.49900000E+00\n'
p1473
aS'%FLAG ANGLE_FORCE_CONSTANT                                                      \n'
p1474
aS'%FORMAT(5E16.8)                                                                 \n'
p1475
aS'  6.72000000E+01  4.85000000E+01  6.46000000E+01  6.94000000E+01  6.87000000E+01\n'
p1476
aS'  6.74000000E+01  6.39000000E+01  7.58000000E+01  6.59000000E+01  4.98000000E+01\n'
p1477
aS'  6.32000000E+01  4.64000000E+01  4.64000000E+01  6.38000000E+01  6.80000000E+01\n'
p1478
aS'  6.79000000E+01  4.72000000E+01  4.92000000E+01  4.60000000E+01  6.47000000E+01\n'
p1479
aS'  6.41000000E+01  6.48000000E+01  4.72000000E+01  6.60000000E+01  7.29000000E+01\n'
p1480
aS'  6.48000000E+01  6.82000000E+01  7.02000000E+01  6.35000000E+01  6.85000000E+01\n'
p1481
aS'  4.82000000E+01  6.55000000E+01  4.72000000E+01  4.72000000E+01  3.94000000E+01\n'
p1482
aS'  3.92000000E+01\n'
p1483
aS'%FLAG ANGLE_EQUIL_VALUE                                                         \n'
p1484
aS'%FORMAT(5E16.8)                                                                 \n'
p1485
aS'  2.09387240E+00  2.09457053E+00  2.09683946E+00  1.95529320E+00  2.15443535E+00\n'
p1486
aS'  2.08793828E+00  2.11795796E+00  2.12982620E+00  1.95703853E+00  1.90799476E+00\n'
p1487
aS'  1.93085858E+00  1.92073567E+00  1.92108473E+00  1.92911325E+00  2.14867576E+00\n'
p1488
aS'  2.00974750E+00  1.91427794E+00  2.06751792E+00  2.03819637E+00  1.88670173E+00\n'
p1489
aS'  2.05617327E+00  2.08479669E+00  1.93487284E+00  2.09614133E+00  1.90974009E+00\n'
p1490
aS'  2.08479669E+00  1.98112408E+00  2.06542352E+00  2.06175833E+00  1.97484090E+00\n'
p1491
aS'  2.14274164E+00  2.14326524E+00  2.17572838E+00  1.93487284E+00  1.89106506E+00\n'
p1492
aS'  1.91200902E+00\n'
p1493
aS'%FLAG DIHEDRAL_FORCE_CONSTANT                                                   \n'
p1494
aS'%FORMAT(5E16.8)                                                                 \n'
p1495
aS'  3.62500000E+00  2.50000000E+00  5.30000000E-01  1.50000000E-01  5.00000000E-01\n'
p1496
aS'  0.00000000E+00  1.55555556E-01  2.00000000E-01  2.50000000E-01  1.80000000E-01\n'
p1497
aS'  1.60000000E-01  0.00000000E+00  7.00000000E-02  1.00000000E-01  8.00000000E-01\n'
p1498
aS'  8.00000000E-02  2.00000000E+00  0.00000000E+00  2.55000000E+00  4.00000000E+00\n'
p1499
aS'  1.70000000E+00  3.00000000E-01  1.50000000E-01  1.10000000E+00  1.05000000E+01\n'
p1500
aS'%FLAG DIHEDRAL_PERIODICITY                                                      \n'
p1501
aS'%FORMAT(5E16.8)                                                                 \n'
p1502
aS'  2.00000000E+00  2.00000000E+00  1.00000000E+00  3.00000000E+00  4.00000000E+00\n'
p1503
aS'  2.00000000E+00  3.00000000E+00  1.00000000E+00  2.00000000E+00  3.00000000E+00\n'
p1504
aS'  3.00000000E+00  2.00000000E+00  2.00000000E+00  4.00000000E+00  1.00000000E+00\n'
p1505
aS'  3.00000000E+00  1.00000000E+00  3.00000000E+00  2.00000000E+00  2.00000000E+00\n'
p1506
aS'  2.00000000E+00  2.00000000E+00  3.00000000E+00  2.00000000E+00  2.00000000E+00\n'
p1507
aS'%FLAG DIHEDRAL_PHASE                                                            \n'
p1508
aS'%FORMAT(5E16.8)                                                                 \n'
p1509
aS'  3.14159400E+00  3.14159400E+00  0.00000000E+00  3.14159400E+00  3.14159400E+00\n'
p1510
aS'  0.00000000E+00  0.00000000E+00  3.14159400E+00  3.14159400E+00  0.00000000E+00\n'
p1511
aS'  0.00000000E+00  3.14159400E+00  0.00000000E+00  0.00000000E+00  0.00000000E+00\n'
p1512
aS'  3.14159400E+00  0.00000000E+00  0.00000000E+00  3.14159400E+00  3.14159400E+00\n'
p1513
aS'  3.14159400E+00  3.14159400E+00  0.00000000E+00  3.14159400E+00  3.14159400E+00\n'
p1514
aS'%FLAG SOLTY                                                                     \n'
p1515
aS'%FORMAT(5E16.8)                                                                 \n'
p1516
aS'  0.00000000E+00  0.00000000E+00  0.00000000E+00  0.00000000E+00  0.00000000E+00\n'
p1517
aS'  0.00000000E+00  0.00000000E+00  0.00000000E+00  0.00000000E+00  0.00000000E+00\n'
p1518
aS'  0.00000000E+00  0.00000000E+00  0.00000000E+00\n'
p1519
aS'%FLAG LENNARD_JONES_ACOEF                                                       \n'
p1520
aS'%FORMAT(5E16.8)                                                                 \n'
p1521
aS'  8.19971662E+05  7.62451550E+04  5.71629601E+03  5.74393458E+05  4.77908183E+04\n'
p1522
aS'  3.79876399E+05  8.82619071E+05  7.91627154E+04  6.06829342E+05  9.44293233E+05\n'
p1523
aS'  9.24822270E+05  8.59947003E+04  6.47841731E+05  9.95480466E+05  1.04308023E+06\n'
p1524
aS'  8.61541883E+04  6.55825601E+03  5.44261042E+04  8.96776989E+04  9.71708117E+04\n'
p1525
aS'  7.51607703E+03  2.27577561E+03  8.90987508E+01  1.02595236E+03  2.12601181E+03\n'
p1526
aS'  2.56678134E+03  1.07193646E+02  1.39982777E-01  4.06163112E+06  4.25969077E+05\n'
p1527
aS'  3.02884402E+06  4.46203747E+06  4.58099601E+06  4.77304850E+05  1.79272682E+04\n'
p1528
aS'  1.87821636E+07  6.01816484E+04  4.33325458E+03  3.69471530E+04  6.20665997E+04\n'
p1529
aS'  6.78771368E+04  4.98586848E+03  5.94667300E+01  3.43778350E+05  3.25969625E+03\n'
p1530
aS'%FLAG LENNARD_JONES_BCOEF                                                       \n'
p1531
aS'%FORMAT(5E16.8)                                                                 \n'
p1532
aS'  5.31102864E+02  1.04660679E+02  1.85196588E+01  5.55666448E+02  1.03580945E+02\n'
p1533
aS'  5.64885984E+02  6.53361429E+02  1.26451907E+02  6.77220874E+02  8.01323529E+02\n'
p1534
aS'  5.99015525E+02  1.18043746E+02  6.26720080E+02  7.36907417E+02  6.75612247E+02\n'
p1535
aS'  1.12529845E+02  2.00642027E+01  1.11805549E+02  1.36131731E+02  1.26919150E+02\n'
p1536
aS'  2.17257828E+01  1.82891803E+01  2.33864085E+00  1.53505284E+01  2.09604198E+01\n'
p1537
aS'  2.06278363E+01  2.59456373E+00  9.37598976E-02  1.64169450E+03  3.43581160E+02\n'
p1538
aS'  1.77219199E+03  2.04031079E+03  1.85161964E+03  3.67866574E+02  7.12934220E+01\n'
p1539
aS'  4.90317952E+03  9.40505980E+01  1.63092814E+01  9.21192136E+01  1.13252061E+02\n'
p1540
aS'  1.06076943E+02  1.76949863E+01  1.93248820E+00  3.12199113E+02  1.43076527E+01\n'
p1541
aS'%FLAG BONDS_INC_HYDROGEN                                                        \n'
p1542
aS'%FORMAT(10I8)                                                                   \n'
p1543
aS'       0     171       2       3     168       2       6     165       2      15\n'
p1544
aS'      18       2      36     159       8      36     162       8      39     153\n'
p1545
aS'       9      39     156       9      42     147       9      42     150       9\n'
p1546
aS'      45     141       9      45     144       9      48     135       9      48\n'
p1547
aS'     138       9      57     132      11      60     126       8      60     129\n'
p1548
aS'       8      63     120       9      63     123       9      72     117       2\n'
p1549
aS'      78     111       2      81     108       2      87     105      18      93\n'
p1550
aS'      96       9      93      99       9      93     102       9\n'
p1551
aS'%FLAG BONDS_WITHOUT_HYDROGEN                                                    \n'
p1552
aS'%FORMAT(10I8)                                                                   \n'
p1553
aS'       0       3       1       0      15       1       3       6       1       6\n'
p1554
aS'       9       1       9      12       1       9      30       3      12      15\n'
p1555
aS'       1      12      21       3      21      24       4      21      27       5\n'
p1556
aS'      27      30       5      27      36       6      30      33       4      36\n'
p1557
aS'      39       7      39      42       7      42      45       7      45      48\n'
p1558
aS'       7      48      51      10      51      54       4      51      57       5\n'
p1559
aS'      57      60       6      60      63       7      63      66      12      66\n'
p1560
aS'      69      13      66      90      14      69      72       1      69      84\n'
p1561
aS'       1      72      75       1      75      78       1      75     114      15\n'
p1562
aS'      78      81       1      81      84       1      84      87      16      87\n'
p1563
aS'      90      17      90      93      19\n'
p1564
aS'%FLAG ANGLES_INC_HYDROGEN                                                       \n'
p1565
aS'%FORMAT(10I8)                                                                   \n'
p1566
aS'       0       3     168       2       0      15      18       2       3       0\n'
p1567
aS'     171       2       3       6     165       2       6       3     168       2\n'
p1568
aS'       9       6     165       2      12      15      18       2      15       0\n'
p1569
aS'     171       2      27      36     159      10      27      36     162      10\n'
p1570
aS'      36      39     153      12      36      39     156      12      39      36\n'
p1571
aS'     159      13      39      36     162      13      39      42     147      12\n'
p1572
aS'      39      42     150      12      42      39     153      12      42      39\n'
p1573
aS'     156      12      42      45     141      12      42      45     144      12\n'
p1574
aS'      45      42     147      12      45      42     150      12      45      48\n'
p1575
aS'     135      12      45      48     138      12      48      45     141      12\n'
p1576
aS'      48      45     144      12      51      48     135      17      51      48\n'
p1577
aS'     138      17      51      57     132      18      57      60     126      10\n'
p1578
aS'      57      60     129      10      60      57     132      19      60      63\n'
p1579
aS'     120      12      60      63     123      12      63      60     126      13\n'
p1580
aS'      63      60     129      13      66      63     120      23      66      63\n'
p1581
aS'     123      23      69      72     117       2      75      72     117       2\n'
p1582
aS'      75      78     111       2      78      81     108       2      81      78\n'
p1583
aS'     111       2      84      81     108       2      84      87     105      31\n'
p1584
aS'      90      87     105      33      90      93      96      34      90      93\n'
p1585
aS'      99      34      90      93     102      34      96      93      99      35\n'
p1586
aS'      96      93     102      35      99      93     102      35     120      63\n'
p1587
aS'     123      35     126      60     129      36     135      48     138      35\n'
p1588
aS'     141      45     144      35     147      42     150      35     153      39\n'
p1589
aS'     156      35     159      36     162      36\n'
p1590
aS'%FLAG ANGLES_WITHOUT_HYDROGEN                                                   \n'
p1591
aS'%FORMAT(10I8)                                                                   \n'
p1592
aS'       0       3       6       1       0      15      12       1       3       0\n'
p1593
aS'      15       1       3       6       9       1       6       9      12       1\n'
p1594
aS'       6       9      30       3       9      12      15       1       9      12\n'
p1595
aS'      21       3       9      30      27       4       9      30      33       5\n'
p1596
aS'      12       9      30       3      12      21      24       5      12      21\n'
p1597
aS'      27       4      15      12      21       3      21      27      30       6\n'
p1598
aS'      21      27      36       7      24      21      27       8      27      30\n'
p1599
aS'      33       8      27      36      39       9      30      27      36       7\n'
p1600
aS'      36      39      42      11      39      42      45      11      42      45\n'
p1601
aS'      48      11      45      48      51      14      48      51      54      15\n'
p1602
aS'      48      51      57      16      51      57      60       7      54      51\n'
p1603
aS'      57       8      57      60      63       9      60      63      66      20\n'
p1604
aS'      63      66      69      21      63      66      90      22      66      69\n'
p1605
aS'      72      24      66      69      84      24      66      90      87      25\n'
p1606
aS'      66      90      93      26      69      66      90      27      69      72\n'
p1607
aS'      75       1      69      84      81       1      69      84      87      28\n'
p1608
aS'      72      69      84       1      72      75      78       1      72      75\n'
p1609
aS'     114      29      75      78      81       1      78      75     114      29\n'
p1610
aS'      78      81      84       1      81      84      87      28      84      87\n'
p1611
aS'      90      30      87      90      93      32\n'
p1612
aS'%FLAG DIHEDRALS_INC_HYDROGEN                                                    \n'
p1613
aS'%FORMAT(10I8)                                                                   \n'
p1614
aS'       0       3       6     165       1       3       0      15      18       1\n'
p1615
aS'     171       0       3       6       1       9       6       3     168       1\n'
p1616
aS'       9      12      15      18       1      12       9       6     165       1\n'
p1617
aS'     171       0      15      12       1      15       0       3     168       1\n'
p1618
aS'     171       0      15      18       1      18      15      12      21       1\n'
p1619
aS'      21      27      36     159       6      21      27      36     162       6\n'
p1620
aS'      27      36      39     153       7      27      36      39     156       7\n'
p1621
aS'      30       9       6     165       1      30      27      36     159       6\n'
p1622
aS'      30      27      36     162       6      36      39      42     147      11\n'
p1623
aS'      36      39      42     150      11      39      42      45     141      11\n'
p1624
aS'      39      42      45     144      11      42      39      36     159       7\n'
p1625
aS'      42      39      36     162       7      42      45      48     135      11\n'
p1626
aS'      42      45      48     138      11      45      42      39     153      11\n'
p1627
aS'      45      42      39     156      11      48      45      42     147      11\n'
p1628
aS'      48      45      42     150      11      48      51      57     132       2\n'
p1629
aS'      51      48      45     141       7      51      48      45     144       7\n'
p1630
aS'      51      57      60     126       6      51      57      60     129       6\n'
p1631
aS'      54      51      48     135      15      54      51     -48     135      16\n'
p1632
aS'      54      51      48     138      15      54      51     -48     138      16\n'
p1633
aS'      54      51      57     132      17      54      51     -57     132       2\n'
p1634
aS'      57      51      48     135      12      57      51      48     138      12\n'
p1635
aS'      57      60      63     120       7      57      60      63     123       7\n'
p1636
aS'      63      60      57     132       6      66      63      60     126       7\n'
p1637
aS'      66      63      60     129       7      66      69      72     117       1\n'
p1638
aS'      66      90      87     105      21      66      90      93      96      18\n'
p1639
aS'      66      90      93      99      18      66      90      93     102      18\n'
p1640
aS'      69      66      63     120      18      69      66      63     123      18\n'
p1641
aS'      69      84      81     108       1      69      84      87     105      22\n'
p1642
aS'      72      75      78     111       1      75      78      81     108       1\n'
p1643
aS'      78      75      72     117       1      81      84      87     105      22\n'
p1644
aS'      84      69      72     117       1      84      81      78     111       1\n'
p1645
aS'      87      84      81     108       1      87      90      93      96      18\n'
p1646
aS'      87      90      93      99      18      87      90      93     102      18\n'
p1647
aS'      90      66      63     120      18      90      66      63     123      18\n'
p1648
aS'      93      90      87     105      21     108      81      78     111       1\n'
p1649
aS'     111      78      75     114       1     114      75      72     117       1\n'
p1650
aS'     120      63      60     126       7     120      63      60     129       7\n'
p1651
aS'     123      63      60     126       7     123      63      60     129       7\n'
p1652
aS'     126      60      57     132       6     129      60      57     132       6\n'
p1653
aS'     135      48      45     141      23     135      48      45     144      23\n'
p1654
aS'     138      48      45     141      23     138      48      45     144      23\n'
p1655
aS'     141      45      42     147      23     141      45      42     150      23\n'
p1656
aS'     144      45      42     147      23     144      45      42     150      23\n'
p1657
aS'     147      42      39     153      23     147      42      39     156      23\n'
p1658
aS'     150      42      39     153      23     150      42      39     156      23\n'
p1659
aS'     153      39      36     159       7     153      39      36     162       7\n'
p1660
aS'     156      39      36     159       7     156      39      36     162       7\n'
p1661
aS'     165       6       3     168       1     171       0       3     168       1\n'
p1662
aS'     171       0     -15      -3      24       0       6      -3    -168      24\n'
p1663
aS'       3       9      -6    -165      24       0      12     -15     -18      24\n'
p1664
aS'      51      60     -57    -132      24      69      75     -72    -117      24\n'
p1665
aS'      75      81     -78    -111      24      78      84     -81    -108      24\n'
p1666
aS'      84      90     -87    -105      24\n'
p1667
aS'%FLAG DIHEDRALS_WITHOUT_HYDROGEN                                                \n'
p1668
aS'%FORMAT(10I8)                                                                   \n'
p1669
aS'       0       3       6       9       1       0      15     -12       9       1\n'
p1670
aS'       0      15      12      21       1       3       0      15      12       1\n'
p1671
aS'       3       6      -9      12       1       3       6       9      30       1\n'
p1672
aS'      15       0       3       6       1       6       9     -12      15       1\n'
p1673
aS'       6       9      12      21       1       6       9      30      27       1\n'
p1674
aS'       6       9      30      33       1       9      12      21      24       1\n'
p1675
aS'       9      12     -21      27       1       9      30     -27      21       2\n'
p1676
aS'       9      30      27      36       2      12       9     -30      27       1\n'
p1677
aS'      12       9      30      33       1      12      21     -27      30       2\n'
p1678
aS'      12      21      27      36       2      15      12       9      30       1\n'
p1679
aS'      15      12      21      24       1      15      12      21      27       1\n'
p1680
aS'      21      12      -9      30       1      21      27      30      33       2\n'
p1681
aS'      21      27      36      39       3      21      27     -36      39       4\n'
p1682
aS'      21      27     -36      39       5      24      21      27      30       2\n'
p1683
aS'      24      21      27      36       2      27      36      39      42       7\n'
p1684
aS'      30      27      36      39       3      30      27     -36      39       6\n'
p1685
aS'      30      27     -36      39       4      30      27     -36      39       5\n'
p1686
aS'      33      30      27      36       2      36      39      42      45       8\n'
p1687
aS'      36      39     -42      45       9      36      39     -42      45      10\n'
p1688
aS'      39      42      45      48       8      39      42     -45      48       9\n'
p1689
aS'      39      42     -45      48      10      42      45      48      51       7\n'
p1690
aS'      45      48      51      54      12      45      48      51      57      13\n'
p1691
aS'      45      48     -51      57      14      48      51      57      60       2\n'
p1692
aS'      51      57      60      63       3      51      57     -60      63       6\n'
p1693
aS'      51      57     -60      63       4      51      57     -60      63       5\n'
p1694
aS'      54      51      57      60       2      57      60      63      66       7\n'
p1695
aS'      60      63      66      69      18      60      63      66      90      18\n'
p1696
aS'      63      66      69      72      19      63      66      69      84      19\n'
p1697
aS'      63      66      90      87      20      63      66      90      93      20\n'
p1698
aS'      66      69      72      75       1      66      69      84      81       1\n'
p1699
aS'      66      69     -84      87       1      66      90     -87      84      21\n'
p1700
aS'      69      66     -90      87      20      69      66      90      93      20\n'
p1701
aS'      69      72      75      78       1      69      72      75     114       1\n'
p1702
aS'      69      84     -81      78       1      69      84     -87      90      22\n'
p1703
aS'      72      69      66      90      19      72      69      84      81       1\n'
p1704
aS'      72      69      84      87       1      72      75     -78      81       1\n'
p1705
aS'      75      72      69      84       1      75      78     -81      84       1\n'
p1706
aS'      78      81      84      87       1      81      78      75     114       1\n'
p1707
aS'      81      84      87      90      22      84      69     -66      90      19\n'
p1708
aS'      84      87      90      93      21      30       6      -9     -12      24\n'
p1709
aS'      21       9     -12     -15      24      12      27     -21     -24      25\n'
p1710
aS'      21      30     -27     -36      24       9      27     -30     -33      25\n'
p1711
aS'      48      57     -51     -54      25      63      69     -66     -90      24\n'
p1712
aS'      72      84     -69     -66      24      72      78     -75    -114      24\n'
p1713
aS'      69      81     -84     -87      24      93      66     -90     -87      24\n'
p1714
aS'%FLAG EXCLUDED_ATOMS_LIST                                                       \n'
p1715
aS'%FORMAT(10I8)                                                                   \n'
p1716
aS'       2       3       4       5       6       7       8      56      57      58\n'
p1717
aS'       3       4       5       6       7      11      56      57      58       4\n'
p1718
aS'       5       6       8      10      11      12      56      57      58       5\n'
p1719
aS'       6       7       8       9      10      11      12      13      56      57\n'
p1720
aS'       6       7       8       9      10      11      12      13      56      58\n'
p1721
aS'       7       8       9      10      11      57      58       8      58       9\n'
p1722
aS'      10      11      12      13      14      54      55      10      11      13\n'
p1723
aS'      11      12      13      14      15      52      53      54      55      12\n'
p1724
aS'      13      14      54      55      56      13      14      15      16      50\n'
p1725
aS'      51      52      53      54      55      15      16      17      48      49\n'
p1726
aS'      50      51      52      53      54      55      16      17      18      46\n'
p1727
aS'      47      48      49      50      51      52      53      54      55      17\n'
p1728
aS'      18      19      20      46      47      48      49      50      51      52\n'
p1729
aS'      53      18      19      20      21      45      46      47      48      49\n'
p1730
aS'      50      51      19      20      21      22      43      44      45      46\n'
p1731
aS'      47      48      49      20      21      45      46      47      21      22\n'
p1732
aS'      23      41      42      43      44      45      46      47      22      23\n'
p1733
aS'      24      31      41      42      43      44      45      23      24      25\n'
p1734
aS'      29      30      31      32      41      42      43      44      45      24\n'
p1735
aS'      25      26      28      29      30      31      32      33      34      35\n'
p1736
aS'      36      40      41      42      43      44      25      26      27      28\n'
p1737
aS'      29      30      31      32      36      37      39      40      41      42\n'
p1738
aS'      26      27      28      29      30      31      38      39      40      27\n'
p1739
aS'      28      29      37      38      39      40      28      29      30      37\n'
p1740
aS'      38      39      40      29      30      31      36      37      38      39\n'
p1741
aS'      30      31      32      36      37      38      40      31      32      33\n'
p1742
aS'      34      35      36      37      32      33      34      35      36      41\n'
p1743
aS'      42      33      34      35      36      34      35      35       0       0\n'
p1744
aS'      38      39      40       0      42      43      44      43      44      44\n'
p1745
aS'      45      45       0      47      48      49      48      49      49      50\n'
p1746
aS'      51      50      51      51      52      53      52      53      53      54\n'
p1747
aS'      55      54      55      55       0      57      58       0\n'
p1748
aS'%FLAG HBOND_ACOEF                                                               \n'
p1749
aS'%FORMAT(5E16.8)                                                                 \n'
p1750
aS'\n'
aS'%FLAG HBOND_BCOEF                                                               \n'
p1751
aS'%FORMAT(5E16.8)                                                                 \n'
p1752
aS'\n'
aS'%FLAG HBCUT                                                                     \n'
p1753
aS'%FORMAT(5E16.8)                                                                 \n'
p1754
aS'\n'
aS'%FLAG AMBER_ATOM_TYPE                                                           \n'
p1755
aS'%FORMAT(20a4)                                                                   \n'
p1756
aS'ca  ca  ca  ca  ca  ca  ha  c   o   n   c   o   c3  c3  c3  c3  c3  c   o   n   \n'
p1757
aS'c3  c3  cc  ca  ca  ca  ca  ca  ca  na  cd  c3  hc  hc  hc  hn  ha  ha  br  ha  \n'
p1758
aS'hc  hc  h1  h1  hn  hc  hc  hc  hc  hc  hc  hc  hc  h1  h1  ha  ha  ha  \n'
p1759
aS'%FLAG TREE_CHAIN_CLASSIFICATION                                                 \n'
p1760
aS'%FORMAT(20a4)                                                                   \n'
p1761
aS'BLA BLA BLA BLA BLA BLA BLA BLA BLA BLA BLA BLA BLA BLA BLA BLA BLA BLA BLA BLA \n'
p1762
aS'BLA BLA BLA BLA BLA BLA BLA BLA BLA BLA BLA BLA BLA BLA BLA BLA BLA BLA BLA BLA \n'
p1763
aS'BLA BLA BLA BLA BLA BLA BLA BLA BLA BLA BLA BLA BLA BLA BLA BLA BLA BLA \n'
p1764
aS'%FLAG JOIN_ARRAY                                                                \n'
p1765
aS'%FORMAT(10I8)                                                                   \n'
p1766
aS'       0       0       0       0       0       0       0       0       0       0\n'
p1767
aS'       0       0       0       0       0       0       0       0       0       0\n'
p1768
aS'       0       0       0       0       0       0       0       0       0       0\n'
p1769
aS'       0       0       0       0       0       0       0       0       0       0\n'
p1770
aS'       0       0       0       0       0       0       0       0       0       0\n'
p1771
aS'       0       0       0       0       0       0       0       0\n'
p1772
aS'%FLAG IROTAT                                                                    \n'
p1773
aS'%FORMAT(10I8)                                                                   \n'
p1774
aS'       0       0       0       0       0       0       0       0       0       0\n'
p1775
aS'       0       0       0       0       0       0       0       0       0       0\n'
p1776
aS'       0       0       0       0       0       0       0       0       0       0\n'
p1777
aS'       0       0       0       0       0       0       0       0       0       0\n'
p1778
aS'       0       0       0       0       0       0       0       0       0       0\n'
p1779
aS'       0       0       0       0       0       0       0       0\n'
p1780
aS'%FLAG RADII                                                                     \n'
p1781
aS'%FORMAT(5E16.8)                                                                 \n'
p1782
aS'  1.70000000E+00  1.70000000E+00  1.70000000E+00  1.70000000E+00  1.70000000E+00\n'
p1783
aS'  1.70000000E+00  1.30000000E+00  1.70000000E+00  1.50000000E+00  1.55000000E+00\n'
p1784
aS'  1.70000000E+00  1.50000000E+00  1.70000000E+00  1.70000000E+00  1.70000000E+00\n'
p1785
aS'  1.70000000E+00  1.70000000E+00  1.70000000E+00  1.50000000E+00  1.55000000E+00\n'
p1786
aS'  1.70000000E+00  1.70000000E+00  1.70000000E+00  1.70000000E+00  1.70000000E+00\n'
p1787
aS'  1.70000000E+00  1.70000000E+00  1.70000000E+00  1.70000000E+00  1.55000000E+00\n'
p1788
aS'  1.70000000E+00  1.70000000E+00  1.30000000E+00  1.30000000E+00  1.30000000E+00\n'
p1789
aS'  1.30000000E+00  1.30000000E+00  1.30000000E+00  1.50000000E+00  1.30000000E+00\n'
p1790
aS'  1.30000000E+00  1.30000000E+00  1.30000000E+00  1.30000000E+00  1.30000000E+00\n'
p1791
aS'  1.30000000E+00  1.30000000E+00  1.30000000E+00  1.30000000E+00  1.30000000E+00\n'
p1792
aS'  1.30000000E+00  1.30000000E+00  1.30000000E+00  1.30000000E+00  1.30000000E+00\n'
p1793
aS'  1.30000000E+00  1.30000000E+00  1.30000000E+00\n'
p1794
aS'%FLAG SCREEN                                                                    \n'
p1795
aS'%FORMAT(5E16.8)                                                                 \n'
p1796
aS'  7.20000000E-01  7.20000000E-01  7.20000000E-01  7.20000000E-01  7.20000000E-01\n'
p1797
aS'  7.20000000E-01  8.50000000E-01  7.20000000E-01  8.50000000E-01  7.90000000E-01\n'
p1798
aS'  7.20000000E-01  8.50000000E-01  7.20000000E-01  7.20000000E-01  7.20000000E-01\n'
p1799
aS'  7.20000000E-01  7.20000000E-01  7.20000000E-01  8.50000000E-01  7.90000000E-01\n'
p1800
aS'  7.20000000E-01  7.20000000E-01  7.20000000E-01  7.20000000E-01  7.20000000E-01\n'
p1801
aS'  7.20000000E-01  7.20000000E-01  7.20000000E-01  7.20000000E-01  7.90000000E-01\n'
p1802
aS'  7.20000000E-01  7.20000000E-01  8.50000000E-01  8.50000000E-01  8.50000000E-01\n'
p1803
aS'  8.50000000E-01  8.50000000E-01  8.50000000E-01  8.00000000E-01  8.50000000E-01\n'
p1804
aS'  8.50000000E-01  8.50000000E-01  8.50000000E-01  8.50000000E-01  8.50000000E-01\n'
p1805
aS'  8.50000000E-01  8.50000000E-01  8.50000000E-01  8.50000000E-01  8.50000000E-01\n'
p1806
aS'  8.50000000E-01  8.50000000E-01  8.50000000E-01  8.50000000E-01  8.50000000E-01\n'
p1807
aS'  8.50000000E-01  8.50000000E-01  8.50000000E-01\n'
p1808
asS'_parent'
p1809
g1
sS'properDihedrals'
p1810
(lp1811
(i__main__
Dihedral
p1812
(dp1813
S'phase'
p1814
F3.141594
sS'kPhi'
p1815
F3.625
sS'period'
p1816
I2
sS'atoms'
p1817
g498
sba(i__main__
Dihedral
p1818
(dp1819
g1814
F3.141594
sg1815
F3.625
sg1816
I2
sg1817
g539
sba(i__main__
Dihedral
p1820
(dp1821
g1814
F3.141594
sg1815
F3.625
sg1816
I2
sg1817
g556
sba(i__main__
Dihedral
p1822
(dp1823
g1814
F3.141594
sg1815
F3.625
sg1816
I2
sg1817
g566
sba(i__main__
Dihedral
p1824
(dp1825
g1814
F3.141594
sg1815
F3.625
sg1816
I2
sg1817
g583
sba(i__main__
Dihedral
p1826
(dp1827
g1814
F3.141594
sg1815
F3.625
sg1816
I2
sg1817
g593
sba(i__main__
Dihedral
p1828
(dp1829
g1814
F3.141594
sg1815
F3.625
sg1816
I2
sg1817
g596
sba(i__main__
Dihedral
p1830
(dp1831
g1814
F3.141594
sg1815
F3.625
sg1816
I2
sg1817
g599
sba(i__main__
Dihedral
p1832
(dp1833
g1814
F3.141594
sg1815
F3.625
sg1816
I2
sg1817
g602
sba(i__main__
Dihedral
p1834
(dp1835
g1814
F3.141594
sg1815
F3.625
sg1816
I2
sg1817
g605
sba(i__main__
Dihedral
p1836
(dp1837
g1814
F0
sg1815
F0
sg1816
I2
sg1817
g614
sba(i__main__
Dihedral
p1838
(dp1839
g1814
F0
sg1815
F0
sg1816
I2
sg1817
g637
sba(i__main__
Dihedral
p1840
(dp1841
g1814
F0
sg1815
F0.15555555600000001
sg1816
I3
sg1817
g647
sba(i__main__
Dihedral
p1842
(dp1843
g1814
F0
sg1815
F0.15555555600000001
sg1816
I3
sg1817
g664
sba(i__main__
Dihedral
p1844
(dp1845
g1814
F3.141594
sg1815
F3.625
sg1816
I2
sg1817
g674
sba(i__main__
Dihedral
p1846
(dp1847
g1814
F0
sg1815
F0
sg1816
I2
sg1817
g683
sba(i__main__
Dihedral
p1848
(dp1849
g1814
F0
sg1815
F0
sg1816
I2
sg1817
g686
sba(i__main__
Dihedral
p1850
(dp1851
g1814
F0
sg1815
F0.16
sg1816
I3
sg1817
g689
sba(i__main__
Dihedral
p1852
(dp1853
g1814
F0
sg1815
F0.16
sg1816
I3
sg1817
g706
sba(i__main__
Dihedral
p1854
(dp1855
g1814
F0
sg1815
F0.16
sg1816
I3
sg1817
g716
sba(i__main__
Dihedral
p1856
(dp1857
g1814
F0
sg1815
F0.16
sg1816
I3
sg1817
g733
sba(i__main__
Dihedral
p1858
(dp1859
g1814
F0
sg1815
F0.15555555600000001
sg1816
I3
sg1817
g743
sba(i__main__
Dihedral
p1860
(dp1861
g1814
F0
sg1815
F0.15555555600000001
sg1816
I3
sg1817
g746
sba(i__main__
Dihedral
p1862
(dp1863
g1814
F0
sg1815
F0.16
sg1816
I3
sg1817
g749
sba(i__main__
Dihedral
p1864
(dp1865
g1814
F0
sg1815
F0.16
sg1816
I3
sg1817
g766
sba(i__main__
Dihedral
p1866
(dp1867
g1814
F0
sg1815
F0.16
sg1816
I3
sg1817
g776
sba(i__main__
Dihedral
p1868
(dp1869
g1814
F0
sg1815
F0.16
sg1816
I3
sg1817
g779
sba(i__main__
Dihedral
p1870
(dp1871
g1814
F0
sg1815
F0.16
sg1816
I3
sg1817
g782
sba(i__main__
Dihedral
p1872
(dp1873
g1814
F0
sg1815
F0.16
sg1816
I3
sg1817
g785
sba(i__main__
Dihedral
p1874
(dp1875
g1814
F3.141594
sg1815
F2.5
sg1816
I2
sg1817
g788
sba(i__main__
Dihedral
p1876
(dp1877
g1814
F0
sg1815
F0.15555555600000001
sg1816
I3
sg1817
g810
sba(i__main__
Dihedral
p1878
(dp1879
g1814
F0
sg1815
F0.15555555600000001
sg1816
I3
sg1817
g813
sba(i__main__
Dihedral
p1880
(dp1881
g1814
F0
sg1815
F0
sg1816
I2
sg1817
g816
sba(i__main__
Dihedral
p1882
(dp1883
g1814
F0
sg1815
F0
sg1816
I2
sg1817
g833
sba(i__main__
Dihedral
p1884
(dp1885
g1814
F0
sg1815
F0.80000000000000004
sg1816
I1
sg1817
g843
sba(i__main__
Dihedral
p1886
(dp1887
g1814
F3.141594
sg1815
F0.080000000000000002
sg1816
I3
sg1817
(lp1888
g844
ag789
ag750
ag757
asba(i__main__
Dihedral
p1889
(dp1890
g1814
F0
sg1815
F0.80000000000000004
sg1816
I1
sg1817
g852
sba(i__main__
Dihedral
p1891
(dp1892
g1814
F3.141594
sg1815
F0.080000000000000002
sg1816
I3
sg1817
(lp1893
g844
ag789
ag750
ag767
asba(i__main__
Dihedral
p1894
(dp1895
g1814
F0
sg1815
F2
sg1816
I1
sg1817
g855
sba(i__main__
Dihedral
p1896
(dp1897
g1814
F3.141594
sg1815
F2.5
sg1816
I2
sg1817
(lp1898
g844
ag789
ag795
ag801
asba(i__main__
Dihedral
p1899
(dp1900
g1814
F3.141594
sg1815
F0
sg1816
I2
sg1817
g858
sba(i__main__
Dihedral
p1901
(dp1902
g1814
F3.141594
sg1815
F0
sg1816
I2
sg1817
g861
sba(i__main__
Dihedral
p1903
(dp1904
g1814
F0
sg1815
F0.15555555600000001
sg1816
I3
sg1817
g864
sba(i__main__
Dihedral
p1905
(dp1906
g1814
F0
sg1815
F0.15555555600000001
sg1816
I3
sg1817
g881
sba(i__main__
Dihedral
p1907
(dp1908
g1814
F0
sg1815
F0
sg1816
I2
sg1817
g891
sba(i__main__
Dihedral
p1909
(dp1910
g1814
F0
sg1815
F0.15555555600000001
sg1816
I3
sg1817
g894
sba(i__main__
Dihedral
p1911
(dp1912
g1814
F0
sg1815
F0.15555555600000001
sg1816
I3
sg1817
g904
sba(i__main__
Dihedral
p1913
(dp1914
g1814
F3.141594
sg1815
F3.625
sg1816
I2
sg1817
g907
sba(i__main__
Dihedral
p1915
(dp1916
g1814
F3.141594
sg1815
F1.7
sg1816
I2
sg1817
g931
sba(i__main__
Dihedral
p1917
(dp1918
g1814
F0
sg1815
F0
sg1816
I3
sg1817
g955
sba(i__main__
Dihedral
p1919
(dp1920
g1814
F0
sg1815
F0
sg1816
I3
sg1817
g972
sba(i__main__
Dihedral
p1921
(dp1922
g1814
F0
sg1815
F0
sg1816
I3
sg1817
g982
sba(i__main__
Dihedral
p1923
(dp1924
g1814
F0
sg1815
F0
sg1816
I3
sg1817
g992
sba(i__main__
Dihedral
p1925
(dp1926
g1814
F0
sg1815
F0
sg1816
I3
sg1817
g995
sba(i__main__
Dihedral
p1927
(dp1928
g1814
F3.141594
sg1815
F3.625
sg1816
I2
sg1817
g998
sba(i__main__
Dihedral
p1929
(dp1930
g1814
F3.141594
sg1815
F0.29999999999999999
sg1816
I2
sg1817
g1022
sba(i__main__
Dihedral
p1931
(dp1932
g1814
F3.141594
sg1815
F3.625
sg1816
I2
sg1817
g1025
sba(i__main__
Dihedral
p1933
(dp1934
g1814
F3.141594
sg1815
F3.625
sg1816
I2
sg1817
g1049
sba(i__main__
Dihedral
p1935
(dp1936
g1814
F3.141594
sg1815
F3.625
sg1816
I2
sg1817
g1052
sba(i__main__
Dihedral
p1937
(dp1938
g1814
F3.141594
sg1815
F0.29999999999999999
sg1816
I2
sg1817
g1055
sba(i__main__
Dihedral
p1939
(dp1940
g1814
F3.141594
sg1815
F3.625
sg1816
I2
sg1817
g1058
sba(i__main__
Dihedral
p1941
(dp1942
g1814
F3.141594
sg1815
F3.625
sg1816
I2
sg1817
g1061
sba(i__main__
Dihedral
p1943
(dp1944
g1814
F3.141594
sg1815
F3.625
sg1816
I2
sg1817
g1064
sba(i__main__
Dihedral
p1945
(dp1946
g1814
F0
sg1815
F0
sg1816
I3
sg1817
g1067
sba(i__main__
Dihedral
p1947
(dp1948
g1814
F0
sg1815
F0
sg1816
I3
sg1817
g1070
sba(i__main__
Dihedral
p1949
(dp1950
g1814
F0
sg1815
F0
sg1816
I3
sg1817
g1073
sba(i__main__
Dihedral
p1951
(dp1952
g1814
F0
sg1815
F0
sg1816
I3
sg1817
g1076
sba(i__main__
Dihedral
p1953
(dp1954
g1814
F0
sg1815
F0
sg1816
I3
sg1817
g1079
sba(i__main__
Dihedral
p1955
(dp1956
g1814
F3.141594
sg1815
F1.7
sg1816
I2
sg1817
g1082
sba(i__main__
Dihedral
p1957
(dp1958
g1814
F3.141594
sg1815
F3.625
sg1816
I2
sg1817
g1085
sba(i__main__
Dihedral
p1959
(dp1960
g1814
F3.141594
sg1815
F3.625
sg1816
I2
sg1817
g1088
sba(i__main__
Dihedral
p1961
(dp1962
g1814
F3.141594
sg1815
F3.625
sg1816
I2
sg1817
g1098
sba(i__main__
Dihedral
p1963
(dp1964
g1814
F0
sg1815
F0.15555555600000001
sg1816
I3
sg1817
g1101
sba(i__main__
Dihedral
p1965
(dp1966
g1814
F0
sg1815
F0.15555555600000001
sg1816
I3
sg1817
g1104
sba(i__main__
Dihedral
p1967
(dp1968
g1814
F0
sg1815
F0.15555555600000001
sg1816
I3
sg1817
g1107
sba(i__main__
Dihedral
p1969
(dp1970
g1814
F0
sg1815
F0.15555555600000001
sg1816
I3
sg1817
g1110
sba(i__main__
Dihedral
p1971
(dp1972
g1814
F0
sg1815
F0
sg1816
I2
sg1817
g1113
sba(i__main__
Dihedral
p1973
(dp1974
g1814
F0
sg1815
F0
sg1816
I2
sg1817
g1116
sba(i__main__
Dihedral
p1975
(dp1976
g1814
F0
sg1815
F0.14999999999999999
sg1816
I3
sg1817
g1119
sba(i__main__
Dihedral
p1977
(dp1978
g1814
F0
sg1815
F0.14999999999999999
sg1816
I3
sg1817
g1122
sba(i__main__
Dihedral
p1979
(dp1980
g1814
F0
sg1815
F0.14999999999999999
sg1816
I3
sg1817
g1125
sba(i__main__
Dihedral
p1981
(dp1982
g1814
F0
sg1815
F0.14999999999999999
sg1816
I3
sg1817
g1128
sba(i__main__
Dihedral
p1983
(dp1984
g1814
F0
sg1815
F0.14999999999999999
sg1816
I3
sg1817
g1131
sba(i__main__
Dihedral
p1985
(dp1986
g1814
F0
sg1815
F0.14999999999999999
sg1816
I3
sg1817
g1134
sba(i__main__
Dihedral
p1987
(dp1988
g1814
F0
sg1815
F0.14999999999999999
sg1816
I3
sg1817
g1137
sba(i__main__
Dihedral
p1989
(dp1990
g1814
F0
sg1815
F0.14999999999999999
sg1816
I3
sg1817
g1140
sba(i__main__
Dihedral
p1991
(dp1992
g1814
F0
sg1815
F0.14999999999999999
sg1816
I3
sg1817
g1143
sba(i__main__
Dihedral
p1993
(dp1994
g1814
F0
sg1815
F0.14999999999999999
sg1816
I3
sg1817
g1146
sba(i__main__
Dihedral
p1995
(dp1996
g1814
F0
sg1815
F0.14999999999999999
sg1816
I3
sg1817
g1149
sba(i__main__
Dihedral
p1997
(dp1998
g1814
F0
sg1815
F0.14999999999999999
sg1816
I3
sg1817
g1152
sba(i__main__
Dihedral
p1999
(dp2000
g1814
F0
sg1815
F0.15555555600000001
sg1816
I3
sg1817
g1155
sba(i__main__
Dihedral
p2001
(dp2002
g1814
F0
sg1815
F0.15555555600000001
sg1816
I3
sg1817
g1158
sba(i__main__
Dihedral
p2003
(dp2004
g1814
F0
sg1815
F0.15555555600000001
sg1816
I3
sg1817
g1161
sba(i__main__
Dihedral
p2005
(dp2006
g1814
F0
sg1815
F0.15555555600000001
sg1816
I3
sg1817
g1164
sba(i__main__
Dihedral
p2007
(dp2008
g1814
F3.141594
sg1815
F3.625
sg1816
I2
sg1817
g1167
sba(i__main__
Dihedral
p2009
(dp2010
g1814
F3.141594
sg1815
F3.625
sg1816
I2
sg1817
g1170
sba(i__main__
Dihedral
p2011
(dp2012
g1814
F3.141594
sg1815
F3.625
sg1816
I2
sg1817
g1173
sba(i__main__
Dihedral
p2013
(dp2014
g1814
F3.141594
sg1815
F3.625
sg1816
I2
sg1817
g1176
sba(i__main__
Dihedral
p2015
(dp2016
g1814
F3.141594
sg1815
F3.625
sg1816
I2
sg1817
g1179
sba(i__main__
Dihedral
p2017
(dp2018
g1814
F3.141594
sg1815
F3.625
sg1816
I2
sg1817
g1182
sba(i__main__
Dihedral
p2019
(dp2020
g1814
F3.141594
sg1815
F3.625
sg1816
I2
sg1817
g1185
sba(i__main__
Dihedral
p2021
(dp2022
g1814
F3.141594
sg1815
F3.625
sg1816
I2
sg1817
g1188
sba(i__main__
Dihedral
p2023
(dp2024
g1814
F3.141594
sg1815
F3.625
sg1816
I2
sg1817
g1191
sba(i__main__
Dihedral
p2025
(dp2026
g1814
F3.141594
sg1815
F3.625
sg1816
I2
sg1817
g1194
sba(i__main__
Dihedral
p2027
(dp2028
g1814
F3.141594
sg1815
F3.625
sg1816
I2
sg1817
g1197
sba(i__main__
Dihedral
p2029
(dp2030
g1814
F3.141594
sg1815
F3.625
sg1816
I2
sg1817
g1200
sba(i__main__
Dihedral
p2031
(dp2032
g1814
F3.141594
sg1815
F3.625
sg1816
I2
sg1817
g1203
sba(i__main__
Dihedral
p2033
(dp2034
g1814
F3.141594
sg1815
F3.625
sg1816
I2
sg1817
g1212
sba(i__main__
Dihedral
p2035
(dp2036
g1814
F3.141594
sg1815
F3.625
sg1816
I2
sg1817
g1221
sba(i__main__
Dihedral
p2037
(dp2038
g1814
F3.141594
sg1815
F2.5
sg1816
I2
sg1817
g1224
sba(i__main__
Dihedral
p2039
(dp2040
g1814
F3.141594
sg1815
F2.5
sg1816
I2
sg1817
g1227
sba(i__main__
Dihedral
p2041
(dp2042
g1814
F3.141594
sg1815
F3.625
sg1816
I2
sg1817
g1230
sba(i__main__
Dihedral
p2043
(dp2044
g1814
F3.141594
sg1815
F3.625
sg1816
I2
sg1817
g1233
sba(i__main__
Dihedral
p2045
(dp2046
g1814
F3.141594
sg1815
F2.5
sg1816
I2
sg1817
g1236
sba(i__main__
Dihedral
p2047
(dp2048
g1814
F3.141594
sg1815
F2.5
sg1816
I2
sg1817
g1239
sba(i__main__
Dihedral
p2049
(dp2050
g1814
F3.141594
sg1815
F3.625
sg1816
I2
sg1817
g1242
sba(i__main__
Dihedral
p2051
(dp2052
g1814
F3.141594
sg1815
F3.625
sg1816
I2
sg1817
g1245
sba(i__main__
Dihedral
p2053
(dp2054
g1814
F3.141594
sg1815
F3.625
sg1816
I2
sg1817
g1248
sba(i__main__
Dihedral
p2055
(dp2056
g1814
F3.141594
sg1815
F3.625
sg1816
I2
sg1817
g1251
sba(i__main__
Dihedral
p2057
(dp2058
g1814
F3.141594
sg1815
F2.5
sg1816
I2
sg1817
g1254
sba(i__main__
Dihedral
p2059
(dp2060
g1814
F0
sg1815
F0.53000000000000003
sg1816
I1
sg1817
g1257
sba(i__main__
Dihedral
p2061
(dp2062
g1814
F3.141594
sg1815
F0.14999999999999999
sg1816
I3
sg1817
(lp2063
g606
ag615
ag621
ag648
asba(i__main__
Dihedral
p2064
(dp2065
g1814
F3.141594
sg1815
F0.5
sg1816
I4
sg1817
(lp2066
g606
ag615
ag621
ag648
asba(i__main__
Dihedral
p2067
(dp2068
g1814
F3.141594
sg1815
F2.5
sg1816
I2
sg1817
g1260
sba(i__main__
Dihedral
p2069
(dp2070
g1814
F3.141594
sg1815
F2.5
sg1816
I2
sg1817
g1263
sba(i__main__
Dihedral
p2071
(dp2072
g1814
F0
sg1815
F0.15555555600000001
sg1816
I3
sg1817
g1266
sba(i__main__
Dihedral
p2073
(dp2074
g1814
F0
sg1815
F0.53000000000000003
sg1816
I1
sg1817
g1269
sba(i__main__
Dihedral
p2075
(dp2076
g1814
F0
sg1815
F0
sg1816
I2
sg1817
(lp2077
g675
ag615
ag621
ag648
asba(i__main__
Dihedral
p2078
(dp2079
g1814
F3.141594
sg1815
F0.14999999999999999
sg1816
I3
sg1817
(lp2080
g675
ag615
ag621
ag648
asba(i__main__
Dihedral
p2081
(dp2082
g1814
F3.141594
sg1815
F0.5
sg1816
I4
sg1817
(lp2083
g675
ag615
ag621
ag648
asba(i__main__
Dihedral
p2084
(dp2085
g1814
F3.141594
sg1815
F2.5
sg1816
I2
sg1817
g1272
sba(i__main__
Dihedral
p2086
(dp2087
g1814
F3.141594
sg1815
F0.20000000000000001
sg1816
I1
sg1817
g1275
sba(i__main__
Dihedral
p2088
(dp2089
g1814
F3.141594
sg1815
F0.25
sg1816
I2
sg1817
(lp2090
g621
ag648
ag690
ag717
asba(i__main__
Dihedral
p2091
(dp2092
g1814
F0
sg1815
F0.17999999999999999
sg1816
I3
sg1817
(lp2093
g621
ag648
ag690
ag717
asba(i__main__
Dihedral
p2094
(dp2095
g1814
F3.141594
sg1815
F0.20000000000000001
sg1816
I1
sg1817
g1278
sba(i__main__
Dihedral
p2096
(dp2097
g1814
F3.141594
sg1815
F0.25
sg1816
I2
sg1817
(lp2098
g648
ag690
ag717
ag750
asba(i__main__
Dihedral
p2099
(dp2100
g1814
F0
sg1815
F0.17999999999999999
sg1816
I3
sg1817
(lp2101
g648
ag690
ag717
ag750
asba(i__main__
Dihedral
p2102
(dp2103
g1814
F0
sg1815
F0.15555555600000001
sg1816
I3
sg1817
g1281
sba(i__main__
Dihedral
p2104
(dp2105
g1814
F3.141594
sg1815
F0
sg1816
I2
sg1817
g1284
sba(i__main__
Dihedral
p2106
(dp2107
g1814
F0
sg1815
F0.070000000000000007
sg1816
I2
sg1817
g1287
sba(i__main__
Dihedral
p2108
(dp2109
g1814
F0
sg1815
F0.10000000000000001
sg1816
I4
sg1817
(lp2110
g717
ag750
ag789
ag795
asba(i__main__
Dihedral
p2111
(dp2112
g1814
F3.141594
sg1815
F2.5
sg1816
I2
sg1817
g1290
sba(i__main__
Dihedral
p2113
(dp2114
g1814
F0
sg1815
F0.53000000000000003
sg1816
I1
sg1817
g1293
sba(i__main__
Dihedral
p2115
(dp2116
g1814
F0
sg1815
F0
sg1816
I2
sg1817
(lp2117
g789
ag795
ag817
ag865
asba(i__main__
Dihedral
p2118
(dp2119
g1814
F3.141594
sg1815
F0.14999999999999999
sg1816
I3
sg1817
(lp2120
g789
ag795
ag817
ag865
asba(i__main__
Dihedral
p2121
(dp2122
g1814
F3.141594
sg1815
F0.5
sg1816
I4
sg1817
(lp2123
g789
ag795
ag817
ag865
asba(i__main__
Dihedral
p2124
(dp2125
g1814
F3.141594
sg1815
F2.5
sg1816
I2
sg1817
g1296
sba(i__main__
Dihedral
p2126
(dp2127
g1814
F0
sg1815
F0.15555555600000001
sg1816
I3
sg1817
g1299
sba(i__main__
Dihedral
p2128
(dp2129
g1814
F0
sg1815
F0
sg1816
I3
sg1817
g1302
sba(i__main__
Dihedral
p2130
(dp2131
g1814
F0
sg1815
F0
sg1816
I3
sg1817
g1305
sba(i__main__
Dihedral
p2132
(dp2133
g1814
F3.141594
sg1815
F2.5499999999999998
sg1816
I2
sg1817
g1308
sba(i__main__
Dihedral
p2134
(dp2135
g1814
F3.141594
sg1815
F2.5499999999999998
sg1816
I2
sg1817
g1311
sba(i__main__
Dihedral
p2136
(dp2137
g1814
F3.141594
sg1815
F4
sg1816
I2
sg1817
g1314
sba(i__main__
Dihedral
p2138
(dp2139
g1814
F3.141594
sg1815
F4
sg1816
I2
sg1817
g1317
sba(i__main__
Dihedral
p2140
(dp2141
g1814
F3.141594
sg1815
F3.625
sg1816
I2
sg1817
g1320
sba(i__main__
Dihedral
p2142
(dp2143
g1814
F3.141594
sg1815
F3.625
sg1816
I2
sg1817
g1323
sba(i__main__
Dihedral
p2144
(dp2145
g1814
F3.141594
sg1815
F3.625
sg1816
I2
sg1817
g1326
sba(i__main__
Dihedral
p2146
(dp2147
g1814
F3.141594
sg1815
F1.7
sg1816
I2
sg1817
g1329
sba(i__main__
Dihedral
p2148
(dp2149
g1814
F3.141594
sg1815
F4
sg1816
I2
sg1817
g1332
sba(i__main__
Dihedral
p2150
(dp2151
g1814
F3.141594
sg1815
F4
sg1816
I2
sg1817
g1335
sba(i__main__
Dihedral
p2152
(dp2153
g1814
F3.141594
sg1815
F3.625
sg1816
I2
sg1817
g1338
sba(i__main__
Dihedral
p2154
(dp2155
g1814
F3.141594
sg1815
F3.625
sg1816
I2
sg1817
g1341
sba(i__main__
Dihedral
p2156
(dp2157
g1814
F3.141594
sg1815
F3.625
sg1816
I2
sg1817
g1344
sba(i__main__
Dihedral
p2158
(dp2159
g1814
F3.141594
sg1815
F0.29999999999999999
sg1816
I2
sg1817
g1347
sba(i__main__
Dihedral
p2160
(dp2161
g1814
F3.141594
sg1815
F2.5499999999999998
sg1816
I2
sg1817
g1350
sba(i__main__
Dihedral
p2162
(dp2163
g1814
F3.141594
sg1815
F3.625
sg1816
I2
sg1817
g1353
sba(i__main__
Dihedral
p2164
(dp2165
g1814
F3.141594
sg1815
F3.625
sg1816
I2
sg1817
g1356
sba(i__main__
Dihedral
p2166
(dp2167
g1814
F3.141594
sg1815
F3.625
sg1816
I2
sg1817
g1359
sba(i__main__
Dihedral
p2168
(dp2169
g1814
F3.141594
sg1815
F3.625
sg1816
I2
sg1817
g1362
sba(i__main__
Dihedral
p2170
(dp2171
g1814
F3.141594
sg1815
F3.625
sg1816
I2
sg1817
g1365
sba(i__main__
Dihedral
p2172
(dp2173
g1814
F3.141594
sg1815
F3.625
sg1816
I2
sg1817
g1368
sba(i__main__
Dihedral
p2174
(dp2175
g1814
F3.141594
sg1815
F3.625
sg1816
I2
sg1817
g1371
sba(i__main__
Dihedral
p2176
(dp2177
g1814
F3.141594
sg1815
F0.29999999999999999
sg1816
I2
sg1817
g1374
sba(i__main__
Dihedral
p2178
(dp2179
g1814
F3.141594
sg1815
F2.5499999999999998
sg1816
I2
sg1817
g1377
sba(i__main__
Dihedral
p2180
(dp2181
g1814
F3.141594
sg1815
F1.7
sg1816
I2
sg1817
g1380
sbasS'improperDihedrals'
p2182
(lp2183
(i__main__
Dihedral
p2184
(dp2185
g1814
F3.141594
sg1815
F1.1000000000000001
sg1816
I2
sg1817
(lp2186
g557
ag499
ag540
ag516
asba(i__main__
Dihedral
p2187
(dp2188
g1814
F3.141594
sg1815
F1.1000000000000001
sg1816
I2
sg1817
(lp2189
g499
ag523
ag516
ag574
asba(i__main__
Dihedral
p2190
(dp2191
g1814
F3.141594
sg1815
F1.1000000000000001
sg1816
I2
sg1817
(lp2192
g516
ag567
ag523
ag530
asba(i__main__
Dihedral
p2193
(dp2194
g1814
F3.141594
sg1815
F1.1000000000000001
sg1816
I2
sg1817
(lp2195
g499
ag584
ag540
ag547
asba(i__main__
Dihedral
p2196
(dp2197
g1814
F3.141594
sg1815
F1.1000000000000001
sg1816
I2
sg1817
(lp2198
g789
ag817
ag795
ag801
asba(i__main__
Dihedral
p2199
(dp2200
g1814
F3.141594
sg1815
F1.1000000000000001
sg1816
I2
sg1817
(lp2201
g908
ag1026
ag915
ag922
asba(i__main__
Dihedral
p2202
(dp2203
g1814
F3.141594
sg1815
F1.1000000000000001
sg1816
I2
sg1817
(lp2204
g1026
ag1006
ag1033
ag1040
asba(i__main__
Dihedral
p2205
(dp2206
g1814
F3.141594
sg1815
F1.1000000000000001
sg1816
I2
sg1817
(lp2207
g1033
ag999
ag1006
ag1013
asba(i__main__
Dihedral
p2208
(dp2209
g1814
F3.141594
sg1815
F1.1000000000000001
sg1816
I2
sg1817
(lp2210
g999
ag932
ag939
ag946
asba(i__main__
Dihedral
p2211
(dp2212
g1814
F3.141594
sg1815
F1.1000000000000001
sg1816
I2
sg1817
(lp2213
g675
ag523
ag567
ag584
asba(i__main__
Dihedral
p2214
(dp2215
g1814
F3.141594
sg1815
F1.1000000000000001
sg1816
I2
sg1817
(lp2216
g606
ag567
ag584
ag540
asba(i__main__
Dihedral
p2217
(dp2218
g1814
F3.141594
sg1815
F10.5
sg1816
I2
sg1817
(lp2219
g584
ag615
ag606
ag1213
asba(i__main__
Dihedral
p2220
(dp2221
g1814
F3.141594
sg1815
F1.1000000000000001
sg1816
I2
sg1817
(lp2222
g606
ag675
ag615
ag621
asba(i__main__
Dihedral
p2223
(dp2224
g1814
F3.141594
sg1815
F10.5
sg1816
I2
sg1817
(lp2225
g567
ag615
ag675
ag1204
asba(i__main__
Dihedral
p2226
(dp2227
g1814
F3.141594
sg1815
F10.5
sg1816
I2
sg1817
(lp2228
g750
ag795
ag789
ag844
asba(i__main__
Dihedral
p2229
(dp2230
g1814
F3.141594
sg1815
F1.1000000000000001
sg1816
I2
sg1817
(lp2231
g865
ag908
ag895
ag932
asba(i__main__
Dihedral
p2232
(dp2233
g1814
F3.141594
sg1815
F1.1000000000000001
sg1816
I2
sg1817
(lp2234
g915
ag999
ag908
ag895
asba(i__main__
Dihedral
p2235
(dp2236
g1814
F3.141594
sg1815
F1.1000000000000001
sg1816
I2
sg1817
(lp2237
g915
ag1033
ag1026
ag1089
asba(i__main__
Dihedral
p2238
(dp2239
g1814
F3.141594
sg1815
F1.1000000000000001
sg1816
I2
sg1817
(lp2240
g908
ag1006
ag999
ag939
asba(i__main__
Dihedral
p2241
(dp2242
g1814
F3.141594
sg1815
F1.1000000000000001
sg1816
I2
sg1817
(lp2243
g956
ag895
ag932
ag939
asbasS'CnsTopFileName'
p2244
S'/home/boincadm/projects/DrugDiscovery/Ligand.acpypi/Ligand_CNS.top'
p2245
sS'bonds'
p2246
(lp2247
(i__main__
Bond
p2248
(dp2249
S'rEq'
p2250
F1.087
sS'kBond'
p2251
F344.30000000000001
sg1817
(lp2252
g499
ag557
asba(i__main__
Bond
p2253
(dp2254
g2250
F1.087
sg2251
F344.30000000000001
sg1817
(lp2255
g516
ag574
asba(i__main__
Bond
p2256
(dp2257
g2250
F1.087
sg2251
F344.30000000000001
sg1817
(lp2258
g523
ag530
asba(i__main__
Bond
p2259
(dp2260
g2250
F1.087
sg2251
F344.30000000000001
sg1817
(lp2261
g540
ag547
asba(i__main__
Bond
p2262
(dp2263
g2250
F1.093
sg2251
F335.89999999999998
sg1817
(lp2264
g621
ag628
asba(i__main__
Bond
p2265
(dp2266
g2250
F1.093
sg2251
F335.89999999999998
sg1817
(lp2267
g621
ag638
asba(i__main__
Bond
p2268
(dp2269
g2250
F1.0920000000000001
sg2251
F337.30000000000001
sg1817
(lp2270
g648
ag655
asba(i__main__
Bond
p2271
(dp2272
g2250
F1.0920000000000001
sg2251
F337.30000000000001
sg1817
(lp2273
g648
ag665
asba(i__main__
Bond
p2274
(dp2275
g2250
F1.0920000000000001
sg2251
F337.30000000000001
sg1817
(lp2276
g690
ag697
asba(i__main__
Bond
p2277
(dp2278
g2250
F1.0920000000000001
sg2251
F337.30000000000001
sg1817
(lp2279
g690
ag707
asba(i__main__
Bond
p2280
(dp2281
g2250
F1.0920000000000001
sg2251
F337.30000000000001
sg1817
(lp2282
g717
ag724
asba(i__main__
Bond
p2283
(dp2284
g2250
F1.0920000000000001
sg2251
F337.30000000000001
sg1817
(lp2285
g717
ag734
asba(i__main__
Bond
p2286
(dp2287
g2250
F1.0920000000000001
sg2251
F337.30000000000001
sg1817
(lp2288
g750
ag757
asba(i__main__
Bond
p2289
(dp2290
g2250
F1.0920000000000001
sg2251
F337.30000000000001
sg1817
(lp2291
g750
ag767
asba(i__main__
Bond
p2292
(dp2293
g2250
F1.0089999999999999
sg2251
F410.19999999999999
sg1817
(lp2294
g795
ag801
asba(i__main__
Bond
p2295
(dp2296
g2250
F1.093
sg2251
F335.89999999999998
sg1817
(lp2297
g817
ag824
asba(i__main__
Bond
p2298
(dp2299
g2250
F1.093
sg2251
F335.89999999999998
sg1817
(lp2300
g817
ag834
asba(i__main__
Bond
p2301
(dp2302
g2250
F1.0920000000000001
sg2251
F337.30000000000001
sg1817
(lp2303
g865
ag872
asba(i__main__
Bond
p2304
(dp2305
g2250
F1.0920000000000001
sg2251
F337.30000000000001
sg1817
(lp2306
g865
ag882
asba(i__main__
Bond
p2307
(dp2308
g2250
F1.087
sg2251
F344.30000000000001
sg1817
(lp2309
g915
ag922
asba(i__main__
Bond
p2310
(dp2311
g2250
F1.087
sg2251
F344.30000000000001
sg1817
(lp2312
g1033
ag1040
asba(i__main__
Bond
p2313
(dp2314
g2250
F1.087
sg2251
F344.30000000000001
sg1817
(lp2315
g1006
ag1013
asba(i__main__
Bond
p2316
(dp2317
g2250
F1.0109999999999999
sg2251
F406.60000000000002
sg1817
(lp2318
g939
ag946
asba(i__main__
Bond
p2319
(dp2320
g2250
F1.0920000000000001
sg2251
F337.30000000000001
sg1817
(lp2321
g956
ag963
asba(i__main__
Bond
p2322
(dp2323
g2250
F1.0920000000000001
sg2251
F337.30000000000001
sg1817
(lp2324
g956
ag973
asba(i__main__
Bond
p2325
(dp2326
g2250
F1.0920000000000001
sg2251
F337.30000000000001
sg1817
(lp2327
g956
ag983
asba(i__main__
Bond
p2328
(dp2329
g2250
F1.387
sg2251
F478.39999999999998
sg1817
(lp2330
g499
ag516
asba(i__main__
Bond
p2331
(dp2332
g2250
F1.387
sg2251
F478.39999999999998
sg1817
(lp2333
g499
ag540
asba(i__main__
Bond
p2334
(dp2335
g2250
F1.387
sg2251
F478.39999999999998
sg1817
(lp2336
g516
ag523
asba(i__main__
Bond
p2337
(dp2338
g2250
F1.387
sg2251
F478.39999999999998
sg1817
(lp2339
g523
ag567
asba(i__main__
Bond
p2340
(dp2341
g2250
F1.387
sg2251
F478.39999999999998
sg1817
(lp2342
g567
ag584
asba(i__main__
Bond
p2343
(dp2344
g2250
F1.4870000000000001
sg2251
F349.69999999999999
sg1817
(lp2345
g567
ag675
asba(i__main__
Bond
p2346
(dp2347
g2250
F1.387
sg2251
F478.39999999999998
sg1817
(lp2348
g584
ag540
asba(i__main__
Bond
p2349
(dp2350
g2250
F1.4870000000000001
sg2251
F349.69999999999999
sg1817
(lp2351
g584
ag606
asba(i__main__
Bond
p2352
(dp2353
g2250
F1.214
sg2251
F648
sg1817
(lp2354
g606
ag1213
asba(i__main__
Bond
p2355
(dp2356
g2250
F1.345
sg2251
F478.19999999999999
sg1817
(lp2357
g606
ag615
asba(i__main__
Bond
p2358
(dp2359
g2250
F1.345
sg2251
F478.19999999999999
sg1817
(lp2360
g615
ag675
asba(i__main__
Bond
p2361
(dp2362
g2250
F1.46
sg2251
F330.60000000000002
sg1817
(lp2363
g615
ag621
asba(i__main__
Bond
p2364
(dp2365
g2250
F1.214
sg2251
F648
sg1817
(lp2366
g675
ag1204
asba(i__main__
Bond
p2367
(dp2368
g2250
F1.5349999999999999
sg2251
F303.10000000000002
sg1817
(lp2369
g621
ag648
asba(i__main__
Bond
p2370
(dp2371
g2250
F1.5349999999999999
sg2251
F303.10000000000002
sg1817
(lp2372
g648
ag690
asba(i__main__
Bond
p2373
(dp2374
g2250
F1.5349999999999999
sg2251
F303.10000000000002
sg1817
(lp2375
g690
ag717
asba(i__main__
Bond
p2376
(dp2377
g2250
F1.5349999999999999
sg2251
F303.10000000000002
sg1817
(lp2378
g717
ag750
asba(i__main__
Bond
p2379
(dp2380
g2250
F1.508
sg2251
F328.30000000000001
sg1817
(lp2381
g750
ag789
asba(i__main__
Bond
p2382
(dp2383
g2250
F1.214
sg2251
F648
sg1817
(lp2384
g789
ag844
asba(i__main__
Bond
p2385
(dp2386
g2250
F1.345
sg2251
F478.19999999999999
sg1817
(lp2387
g789
ag795
asba(i__main__
Bond
p2388
(dp2389
g2250
F1.46
sg2251
F330.60000000000002
sg1817
(lp2390
g795
ag817
asba(i__main__
Bond
p2391
(dp2392
g2250
F1.5349999999999999
sg2251
F303.10000000000002
sg1817
(lp2393
g817
ag865
asba(i__main__
Bond
p2394
(dp2395
g2250
F1.4990000000000001
sg2251
F337.30000000000001
sg1817
(lp2396
g865
ag895
asba(i__main__
Bond
p2397
(dp2398
g2250
F1.4339999999999999
sg2251
F411.69999999999999
sg1817
(lp2399
g895
ag908
asba(i__main__
Bond
p2400
(dp2401
g2250
F1.371
sg2251
F504
sg1817
(lp2402
g895
ag932
asba(i__main__
Bond
p2403
(dp2404
g2250
F1.387
sg2251
F478.39999999999998
sg1817
(lp2405
g908
ag915
asba(i__main__
Bond
p2406
(dp2407
g2250
F1.387
sg2251
F478.39999999999998
sg1817
(lp2408
g908
ag999
asba(i__main__
Bond
p2409
(dp2410
g2250
F1.387
sg2251
F478.39999999999998
sg1817
(lp2411
g915
ag1026
asba(i__main__
Bond
p2412
(dp2413
g2250
F1.387
sg2251
F478.39999999999998
sg1817
(lp2414
g1026
ag1033
asba(i__main__
Bond
p2415
(dp2416
g2250
F1.897
sg2251
F269.60000000000002
sg1817
(lp2417
g1026
ag1089
asba(i__main__
Bond
p2418
(dp2419
g2250
F1.387
sg2251
F478.39999999999998
sg1817
(lp2420
g1033
ag1006
asba(i__main__
Bond
p2421
(dp2422
g2250
F1.387
sg2251
F478.39999999999998
sg1817
(lp2423
g1006
ag999
asba(i__main__
Bond
p2424
(dp2425
g2250
F1.3500000000000001
sg2251
F470.30000000000001
sg1817
(lp2426
g999
ag939
asba(i__main__
Bond
p2427
(dp2428
g2250
F1.371
sg2251
F438.80000000000001
sg1817
(lp2429
g939
ag932
asba(i__main__
Bond
p2430
(dp2431
g2250
F1.4990000000000001
sg2251
F337.30000000000001
sg1817
(lp2432
g932
ag956
asbasS'atomTypes'
p2433
(lp2434
g506
ag550
ag609
ag1216
ag618
ag624
ag898
ag942
ag935
ag966
ag949
ag1092
ag827
asS'allhdg'
p2435
I00
sg1817
(lp2436
g499
ag516
ag523
ag567
ag584
ag540
ag547
ag606
ag1213
ag615
ag675
ag1204
ag621
ag648
ag690
ag717
ag750
ag789
ag844
ag795
ag817
ag865
ag895
ag908
ag915
ag1026
ag1033
ag1006
ag999
ag939
ag932
ag956
ag963
ag973
ag983
ag946
ag1013
ag1040
ag1089
ag922
ag872
ag882
ag824
ag834
ag801
ag757
ag767
ag724
ag734
ag697
ag707
ag655
ag665
ag628
ag638
ag530
ag574
ag557
asS'atomsGromacs'
p2437
(lp2438
g499
ag516
ag523
ag567
ag584
ag540
ag547
ag606
ag1213
ag615
ag675
ag1204
ag621
ag648
ag690
ag717
ag750
ag789
ag844
ag795
ag817
ag865
ag895
ag908
ag915
ag1026
ag1033
ag1006
ag999
ag939
ag932
ag956
ag963
ag973
ag983
ag946
ag1013
ag1040
ag1089
ag922
ag872
ag882
ag824
ag834
ag801
ag757
ag767
ag724
ag734
ag697
ag707
ag655
ag665
ag628
ag638
ag530
ag574
ag557
asS'condensedProperDihedrals'
p2439
(lp2440
(lp2441
g1812
aa(lp2442
g1818
aa(lp2443
g1820
aa(lp2444
g1822
aa(lp2445
g1824
aa(lp2446
g1826
aa(lp2447
g1828
aa(lp2448
g1830
aa(lp2449
g1832
aa(lp2450
g1834
aa(lp2451
g1836
aa(lp2452
g1838
aa(lp2453
g1840
aa(lp2454
g1842
aa(lp2455
g1844
aa(lp2456
g1846
aa(lp2457
g1848
aa(lp2458
g1850
aa(lp2459
g1852
aa(lp2460
g1854
aa(lp2461
g1856
aa(lp2462
g1858
aa(lp2463
g1860
aa(lp2464
g1862
aa(lp2465
g1864
aa(lp2466
g1866
aa(lp2467
g1868
aa(lp2468
g1870
aa(lp2469
g1872
aa(lp2470
g1874
aa(lp2471
g1876
aa(lp2472
g1878
aa(lp2473
g1880
aa(lp2474
g1882
aa(lp2475
g1884
ag1886
aa(lp2476
g1889
ag1891
aa(lp2477
g1894
ag1896
aa(lp2478
g1899
aa(lp2479
g1901
aa(lp2480
g1903
aa(lp2481
g1905
aa(lp2482
g1907
aa(lp2483
g1909
aa(lp2484
g1911
aa(lp2485
g1913
aa(lp2486
g1915
aa(lp2487
g1917
aa(lp2488
g1919
aa(lp2489
g1921
aa(lp2490
g1923
aa(lp2491
g1925
aa(lp2492
g1927
aa(lp2493
g1929
aa(lp2494
g1931
aa(lp2495
g1933
aa(lp2496
g1935
aa(lp2497
g1937
aa(lp2498
g1939
aa(lp2499
g1941
aa(lp2500
g1943
aa(lp2501
g1945
aa(lp2502
g1947
aa(lp2503
g1949
aa(lp2504
g1951
aa(lp2505
g1953
aa(lp2506
g1955
aa(lp2507
g1957
aa(lp2508
g1959
aa(lp2509
g1961
aa(lp2510
g1963
aa(lp2511
g1965
aa(lp2512
g1967
aa(lp2513
g1969
aa(lp2514
g1971
aa(lp2515
g1973
aa(lp2516
g1975
aa(lp2517
g1977
aa(lp2518
g1979
aa(lp2519
g1981
aa(lp2520
g1983
aa(lp2521
g1985
aa(lp2522
g1987
aa(lp2523
g1989
aa(lp2524
g1991
aa(lp2525
g1993
aa(lp2526
g1995
aa(lp2527
g1997
aa(lp2528
g1999
aa(lp2529
g2001
aa(lp2530
g2003
aa(lp2531
g2005
aa(lp2532
g2007
aa(lp2533
g2009
aa(lp2534
g2011
aa(lp2535
g2013
aa(lp2536
g2015
aa(lp2537
g2017
aa(lp2538
g2019
aa(lp2539
g2021
aa(lp2540
g2023
aa(lp2541
g2025
aa(lp2542
g2027
aa(lp2543
g2029
aa(lp2544
g2031
aa(lp2545
g2033
aa(lp2546
g2035
aa(lp2547
g2037
aa(lp2548
g2039
aa(lp2549
g2041
aa(lp2550
g2043
aa(lp2551
g2045
aa(lp2552
g2047
aa(lp2553
g2049
aa(lp2554
g2051
aa(lp2555
g2053
aa(lp2556
g2055
aa(lp2557
g2057
aa(lp2558
g2059
ag2061
ag2064
aa(lp2559
g2067
aa(lp2560
g2069
aa(lp2561
g2071
aa(lp2562
g2073
ag2075
ag2078
ag2081
aa(lp2563
g2084
aa(lp2564
g2086
ag2088
ag2091
aa(lp2565
g2094
ag2096
ag2099
aa(lp2566
g2102
aa(lp2567
g2104
aa(lp2568
g2106
ag2108
aa(lp2569
g2111
aa(lp2570
g2113
ag2115
ag2118
ag2121
aa(lp2571
g2124
aa(lp2572
g2126
aa(lp2573
g2128
aa(lp2574
g2130
aa(lp2575
g2132
aa(lp2576
g2134
aa(lp2577
g2136
aa(lp2578
g2138
aa(lp2579
g2140
aa(lp2580
g2142
aa(lp2581
g2144
aa(lp2582
g2146
aa(lp2583
g2148
aa(lp2584
g2150
aa(lp2585
g2152
aa(lp2586
g2154
aa(lp2587
g2156
aa(lp2588
g2158
aa(lp2589
g2160
aa(lp2590
g2162
aa(lp2591
g2164
aa(lp2592
g2166
aa(lp2593
g2168
aa(lp2594
g2170
aa(lp2595
g2172
aa(lp2596
g2174
aa(lp2597
g2176
aa(lp2598
g2178
aa(lp2599
g2180
aasS'angles'
p2600
(lp2601
(i__main__
Angle
p2602
(dp2603
S'kTheta'
p2604
F48.5
sS'thetaEq'
p2605
F2.0945705299999999
sg1817
(lp2606
g499
ag516
ag574
asba(i__main__
Angle
p2607
(dp2608
g2604
F48.5
sg2605
F2.0945705299999999
sg1817
(lp2609
g499
ag540
ag547
asba(i__main__
Angle
p2610
(dp2611
g2604
F48.5
sg2605
F2.0945705299999999
sg1817
(lp2612
g516
ag499
ag557
asba(i__main__
Angle
p2613
(dp2614
g2604
F48.5
sg2605
F2.0945705299999999
sg1817
(lp2615
g516
ag523
ag530
asba(i__main__
Angle
p2616
(dp2617
g2604
F48.5
sg2605
F2.0945705299999999
sg1817
(lp2618
g523
ag516
ag574
asba(i__main__
Angle
p2619
(dp2620
g2604
F48.5
sg2605
F2.0945705299999999
sg1817
(lp2621
g567
ag523
ag530
asba(i__main__
Angle
p2622
(dp2623
g2604
F48.5
sg2605
F2.0945705299999999
sg1817
(lp2624
g584
ag540
ag547
asba(i__main__
Angle
p2625
(dp2626
g2604
F48.5
sg2605
F2.0945705299999999
sg1817
(lp2627
g540
ag499
ag557
asba(i__main__
Angle
p2628
(dp2629
g2604
F49.799999999999997
sg2605
F1.90799476
sg1817
(lp2630
g615
ag621
ag628
asba(i__main__
Angle
p2631
(dp2632
g2604
F49.799999999999997
sg2605
F1.90799476
sg1817
(lp2633
g615
ag621
ag638
asba(i__main__
Angle
p2634
(dp2635
g2604
F46.399999999999999
sg2605
F1.92073567
sg1817
(lp2636
g621
ag648
ag655
asba(i__main__
Angle
p2637
(dp2638
g2604
F46.399999999999999
sg2605
F1.92073567
sg1817
(lp2639
g621
ag648
ag665
asba(i__main__
Angle
p2640
(dp2641
g2604
F46.399999999999999
sg2605
F1.92108473
sg1817
(lp2642
g648
ag621
ag628
asba(i__main__
Angle
p2643
(dp2644
g2604
F46.399999999999999
sg2605
F1.92108473
sg1817
(lp2645
g648
ag621
ag638
asba(i__main__
Angle
p2646
(dp2647
g2604
F46.399999999999999
sg2605
F1.92073567
sg1817
(lp2648
g648
ag690
ag697
asba(i__main__
Angle
p2649
(dp2650
g2604
F46.399999999999999
sg2605
F1.92073567
sg1817
(lp2651
g648
ag690
ag707
asba(i__main__
Angle
p2652
(dp2653
g2604
F46.399999999999999
sg2605
F1.92073567
sg1817
(lp2654
g690
ag648
ag655
asba(i__main__
Angle
p2655
(dp2656
g2604
F46.399999999999999
sg2605
F1.92073567
sg1817
(lp2657
g690
ag648
ag665
asba(i__main__
Angle
p2658
(dp2659
g2604
F46.399999999999999
sg2605
F1.92073567
sg1817
(lp2660
g690
ag717
ag724
asba(i__main__
Angle
p2661
(dp2662
g2604
F46.399999999999999
sg2605
F1.92073567
sg1817
(lp2663
g690
ag717
ag734
asba(i__main__
Angle
p2664
(dp2665
g2604
F46.399999999999999
sg2605
F1.92073567
sg1817
(lp2666
g717
ag690
ag697
asba(i__main__
Angle
p2667
(dp2668
g2604
F46.399999999999999
sg2605
F1.92073567
sg1817
(lp2669
g717
ag690
ag707
asba(i__main__
Angle
p2670
(dp2671
g2604
F46.399999999999999
sg2605
F1.92073567
sg1817
(lp2672
g717
ag750
ag757
asba(i__main__
Angle
p2673
(dp2674
g2604
F46.399999999999999
sg2605
F1.92073567
sg1817
(lp2675
g717
ag750
ag767
asba(i__main__
Angle
p2676
(dp2677
g2604
F46.399999999999999
sg2605
F1.92073567
sg1817
(lp2678
g750
ag717
ag724
asba(i__main__
Angle
p2679
(dp2680
g2604
F46.399999999999999
sg2605
F1.92073567
sg1817
(lp2681
g750
ag717
ag734
asba(i__main__
Angle
p2682
(dp2683
g2604
F47.200000000000003
sg2605
F1.9142779400000001
sg1817
(lp2684
g789
ag750
ag757
asba(i__main__
Angle
p2685
(dp2686
g2604
F47.200000000000003
sg2605
F1.9142779400000001
sg1817
(lp2687
g789
ag750
ag767
asba(i__main__
Angle
p2688
(dp2689
g2604
F49.200000000000003
sg2605
F2.0675179199999998
sg1817
(lp2690
g789
ag795
ag801
asba(i__main__
Angle
p2691
(dp2692
g2604
F49.799999999999997
sg2605
F1.90799476
sg1817
(lp2693
g795
ag817
ag824
asba(i__main__
Angle
p2694
(dp2695
g2604
F49.799999999999997
sg2605
F1.90799476
sg1817
(lp2696
g795
ag817
ag834
asba(i__main__
Angle
p2697
(dp2698
g2604
F46
sg2605
F2.0381963700000001
sg1817
(lp2699
g817
ag795
ag801
asba(i__main__
Angle
p2700
(dp2701
g2604
F46.399999999999999
sg2605
F1.92073567
sg1817
(lp2702
g817
ag865
ag872
asba(i__main__
Angle
p2703
(dp2704
g2604
F46.399999999999999
sg2605
F1.92073567
sg1817
(lp2705
g817
ag865
ag882
asba(i__main__
Angle
p2706
(dp2707
g2604
F46.399999999999999
sg2605
F1.92108473
sg1817
(lp2708
g865
ag817
ag824
asba(i__main__
Angle
p2709
(dp2710
g2604
F46.399999999999999
sg2605
F1.92108473
sg1817
(lp2711
g865
ag817
ag834
asba(i__main__
Angle
p2712
(dp2713
g2604
F47.200000000000003
sg2605
F1.9348728399999999
sg1817
(lp2714
g895
ag865
ag872
asba(i__main__
Angle
p2715
(dp2716
g2604
F47.200000000000003
sg2605
F1.9348728399999999
sg1817
(lp2717
g895
ag865
ag882
asba(i__main__
Angle
p2718
(dp2719
g2604
F48.5
sg2605
F2.0945705299999999
sg1817
(lp2720
g908
ag915
ag922
asba(i__main__
Angle
p2721
(dp2722
g2604
F48.5
sg2605
F2.0945705299999999
sg1817
(lp2723
g1026
ag915
ag922
asba(i__main__
Angle
p2724
(dp2725
g2604
F48.5
sg2605
F2.0945705299999999
sg1817
(lp2726
g1026
ag1033
ag1040
asba(i__main__
Angle
p2727
(dp2728
g2604
F48.5
sg2605
F2.0945705299999999
sg1817
(lp2729
g1033
ag1006
ag1013
asba(i__main__
Angle
p2730
(dp2731
g2604
F48.5
sg2605
F2.0945705299999999
sg1817
(lp2732
g1006
ag1033
ag1040
asba(i__main__
Angle
p2733
(dp2734
g2604
F48.5
sg2605
F2.0945705299999999
sg1817
(lp2735
g999
ag1006
ag1013
asba(i__main__
Angle
p2736
(dp2737
g2604
F48.200000000000003
sg2605
F2.1427416400000001
sg1817
(lp2738
g999
ag939
ag946
asba(i__main__
Angle
p2739
(dp2740
g2604
F47.200000000000003
sg2605
F2.1757283799999998
sg1817
(lp2741
g932
ag939
ag946
asba(i__main__
Angle
p2742
(dp2743
g2604
F47.200000000000003
sg2605
F1.9348728399999999
sg1817
(lp2744
g932
ag956
ag963
asba(i__main__
Angle
p2745
(dp2746
g2604
F47.200000000000003
sg2605
F1.9348728399999999
sg1817
(lp2747
g932
ag956
ag973
asba(i__main__
Angle
p2748
(dp2749
g2604
F47.200000000000003
sg2605
F1.9348728399999999
sg1817
(lp2750
g932
ag956
ag983
asba(i__main__
Angle
p2751
(dp2752
g2604
F39.399999999999999
sg2605
F1.8910650600000001
sg1817
(lp2753
g963
ag956
ag973
asba(i__main__
Angle
p2754
(dp2755
g2604
F39.399999999999999
sg2605
F1.8910650600000001
sg1817
(lp2756
g963
ag956
ag983
asba(i__main__
Angle
p2757
(dp2758
g2604
F39.399999999999999
sg2605
F1.8910650600000001
sg1817
(lp2759
g973
ag956
ag983
asba(i__main__
Angle
p2760
(dp2761
g2604
F39.399999999999999
sg2605
F1.8910650600000001
sg1817
(lp2762
g872
ag865
ag882
asba(i__main__
Angle
p2763
(dp2764
g2604
F39.200000000000003
sg2605
F1.9120090199999999
sg1817
(lp2765
g824
ag817
ag834
asba(i__main__
Angle
p2766
(dp2767
g2604
F39.399999999999999
sg2605
F1.8910650600000001
sg1817
(lp2768
g757
ag750
ag767
asba(i__main__
Angle
p2769
(dp2770
g2604
F39.399999999999999
sg2605
F1.8910650600000001
sg1817
(lp2771
g724
ag717
ag734
asba(i__main__
Angle
p2772
(dp2773
g2604
F39.399999999999999
sg2605
F1.8910650600000001
sg1817
(lp2774
g697
ag690
ag707
asba(i__main__
Angle
p2775
(dp2776
g2604
F39.399999999999999
sg2605
F1.8910650600000001
sg1817
(lp2777
g655
ag648
ag665
asba(i__main__
Angle
p2778
(dp2779
g2604
F39.200000000000003
sg2605
F1.9120090199999999
sg1817
(lp2780
g628
ag621
ag638
asba(i__main__
Angle
p2781
(dp2782
g2604
F67.200000000000003
sg2605
F2.0938724
sg1817
(lp2783
g499
ag516
ag523
asba(i__main__
Angle
p2784
(dp2785
g2604
F67.200000000000003
sg2605
F2.0938724
sg1817
(lp2786
g499
ag540
ag584
asba(i__main__
Angle
p2787
(dp2788
g2604
F67.200000000000003
sg2605
F2.0938724
sg1817
(lp2789
g516
ag499
ag540
asba(i__main__
Angle
p2790
(dp2791
g2604
F67.200000000000003
sg2605
F2.0938724
sg1817
(lp2792
g516
ag523
ag567
asba(i__main__
Angle
p2793
(dp2794
g2604
F67.200000000000003
sg2605
F2.0938724
sg1817
(lp2795
g523
ag567
ag584
asba(i__main__
Angle
p2796
(dp2797
g2604
F64.599999999999994
sg2605
F2.09683946
sg1817
(lp2798
g523
ag567
ag675
asba(i__main__
Angle
p2799
(dp2800
g2604
F67.200000000000003
sg2605
F2.0938724
sg1817
(lp2801
g567
ag584
ag540
asba(i__main__
Angle
p2802
(dp2803
g2604
F64.599999999999994
sg2605
F2.09683946
sg1817
(lp2804
g567
ag584
ag606
asba(i__main__
Angle
p2805
(dp2806
g2604
F69.400000000000006
sg2605
F1.9552932000000001
sg1817
(lp2807
g567
ag675
ag615
asba(i__main__
Angle
p2808
(dp2809
g2604
F68.700000000000003
sg2605
F2.15443535
sg1817
(lp2810
g567
ag675
ag1204
asba(i__main__
Angle
p2811
(dp2812
g2604
F64.599999999999994
sg2605
F2.09683946
sg1817
(lp2813
g584
ag567
ag675
asba(i__main__
Angle
p2814
(dp2815
g2604
F68.700000000000003
sg2605
F2.15443535
sg1817
(lp2816
g584
ag606
ag1213
asba(i__main__
Angle
p2817
(dp2818
g2604
F69.400000000000006
sg2605
F1.9552932000000001
sg1817
(lp2819
g584
ag606
ag615
asba(i__main__
Angle
p2820
(dp2821
g2604
F64.599999999999994
sg2605
F2.09683946
sg1817
(lp2822
g540
ag584
ag606
asba(i__main__
Angle
p2823
(dp2824
g2604
F67.400000000000006
sg2605
F2.0879382799999999
sg1817
(lp2825
g606
ag615
ag675
asba(i__main__
Angle
p2826
(dp2827
g2604
F63.899999999999999
sg2605
F2.11795796
sg1817
(lp2828
g606
ag615
ag621
asba(i__main__
Angle
p2829
(dp2830
g2604
F75.799999999999997
sg2605
F2.1298262000000001
sg1817
(lp2831
g1213
ag606
ag615
asba(i__main__
Angle
p2832
(dp2833
g2604
F75.799999999999997
sg2605
F2.1298262000000001
sg1817
(lp2834
g615
ag675
ag1204
asba(i__main__
Angle
p2835
(dp2836
g2604
F65.900000000000006
sg2605
F1.9570385299999999
sg1817
(lp2837
g615
ag621
ag648
asba(i__main__
Angle
p2838
(dp2839
g2604
F63.899999999999999
sg2605
F2.11795796
sg1817
(lp2840
g675
ag615
ag621
asba(i__main__
Angle
p2841
(dp2842
g2604
F63.200000000000003
sg2605
F1.93085858
sg1817
(lp2843
g621
ag648
ag690
asba(i__main__
Angle
p2844
(dp2845
g2604
F63.200000000000003
sg2605
F1.93085858
sg1817
(lp2846
g648
ag690
ag717
asba(i__main__
Angle
p2847
(dp2848
g2604
F63.200000000000003
sg2605
F1.93085858
sg1817
(lp2849
g690
ag717
ag750
asba(i__main__
Angle
p2850
(dp2851
g2604
F63.799999999999997
sg2605
F1.9291132499999999
sg1817
(lp2852
g717
ag750
ag789
asba(i__main__
Angle
p2853
(dp2854
g2604
F68
sg2605
F2.1486757600000002
sg1817
(lp2855
g750
ag789
ag844
asba(i__main__
Angle
p2856
(dp2857
g2604
F67.900000000000006
sg2605
F2.0097475
sg1817
(lp2858
g750
ag789
ag795
asba(i__main__
Angle
p2859
(dp2860
g2604
F63.899999999999999
sg2605
F2.11795796
sg1817
(lp2861
g789
ag795
ag817
asba(i__main__
Angle
p2862
(dp2863
g2604
F75.799999999999997
sg2605
F2.1298262000000001
sg1817
(lp2864
g844
ag789
ag795
asba(i__main__
Angle
p2865
(dp2866
g2604
F65.900000000000006
sg2605
F1.9570385299999999
sg1817
(lp2867
g795
ag817
ag865
asba(i__main__
Angle
p2868
(dp2869
g2604
F64.700000000000003
sg2605
F1.88670173
sg1817
(lp2870
g817
ag865
ag895
asba(i__main__
Angle
p2871
(dp2872
g2604
F64.099999999999994
sg2605
F2.0561732699999999
sg1817
(lp2873
g865
ag895
ag908
asba(i__main__
Angle
p2874
(dp2875
g2604
F64.799999999999997
sg2605
F2.0847966900000001
sg1817
(lp2876
g865
ag895
ag932
asba(i__main__
Angle
p2877
(dp2878
g2604
F66
sg2605
F2.09614133
sg1817
(lp2879
g895
ag908
ag915
asba(i__main__
Angle
p2880
(dp2881
g2604
F66
sg2605
F2.09614133
sg1817
(lp2882
g895
ag908
ag999
asba(i__main__
Angle
p2883
(dp2884
g2604
F72.900000000000006
sg2605
F1.9097400899999999
sg1817
(lp2885
g895
ag932
ag939
asba(i__main__
Angle
p2886
(dp2887
g2604
F64.799999999999997
sg2605
F2.0847966900000001
sg1817
(lp2888
g895
ag932
ag956
asba(i__main__
Angle
p2889
(dp2890
g2604
F68.200000000000003
sg2605
F1.9811240800000001
sg1817
(lp2891
g908
ag895
ag932
asba(i__main__
Angle
p2892
(dp2893
g2604
F67.200000000000003
sg2605
F2.0938724
sg1817
(lp2894
g908
ag915
ag1026
asba(i__main__
Angle
p2895
(dp2896
g2604
F67.200000000000003
sg2605
F2.0938724
sg1817
(lp2897
g908
ag999
ag1006
asba(i__main__
Angle
p2898
(dp2899
g2604
F70.200000000000003
sg2605
F2.06542352
sg1817
(lp2900
g908
ag999
ag939
asba(i__main__
Angle
p2901
(dp2902
g2604
F67.200000000000003
sg2605
F2.0938724
sg1817
(lp2903
g915
ag908
ag999
asba(i__main__
Angle
p2904
(dp2905
g2604
F67.200000000000003
sg2605
F2.0938724
sg1817
(lp2906
g915
ag1026
ag1033
asba(i__main__
Angle
p2907
(dp2908
g2604
F63.5
sg2605
F2.06175833
sg1817
(lp2909
g915
ag1026
ag1089
asba(i__main__
Angle
p2910
(dp2911
g2604
F67.200000000000003
sg2605
F2.0938724
sg1817
(lp2912
g1026
ag1033
ag1006
asba(i__main__
Angle
p2913
(dp2914
g2604
F63.5
sg2605
F2.06175833
sg1817
(lp2915
g1033
ag1026
ag1089
asba(i__main__
Angle
p2916
(dp2917
g2604
F67.200000000000003
sg2605
F2.0938724
sg1817
(lp2918
g1033
ag1006
ag999
asba(i__main__
Angle
p2919
(dp2920
g2604
F70.200000000000003
sg2605
F2.06542352
sg1817
(lp2921
g1006
ag999
ag939
asba(i__main__
Angle
p2922
(dp2923
g2604
F68.5
sg2605
F1.9748409
sg1817
(lp2924
g999
ag939
ag932
asba(i__main__
Angle
p2925
(dp2926
g2604
F65.5
sg2605
F2.1432652399999998
sg1817
(lp2927
g939
ag932
ag956
asbasS'CnsPdbFileName'
p2928
S'/home/boincadm/projects/DrugDiscovery/Ligand.acpypi/Ligand_NEW.pdb'
p2929
sS'baseName'
p2930
S'Ligand'
p2931
sS'atomPairs'
p2932
(lp2933
(g1006
g932
tp2934
a(g1006
g946
tp2935
a(g1006
g1089
tp2936
a(g999
g956
tp2937
a(g999
g1040
tp2938
a(g999
g922
tp2939
a(g939
g963
tp2940
a(g939
g973
tp2941
a(g939
g983
tp2942
a(g939
g1013
tp2943
a(g932
g872
tp2944
a(g932
g882
tp2945
a(g956
g946
tp2946
a(g1013
g1040
tp2947
a(g1040
g1089
tp2948
a(g1089
g922
tp2949
a(g872
g824
tp2950
a(g872
g834
tp2951
a(g882
g824
tp2952
a(g882
g834
tp2953
a(g824
g801
tp2954
a(g834
g801
tp2955
a(g757
g724
tp2956
a(g757
g734
tp2957
a(g767
g724
tp2958
a(g767
g734
tp2959
a(g724
g697
tp2960
a(g724
g707
tp2961
a(g734
g697
tp2962
a(g734
g707
tp2963
a(g697
g655
tp2964
a(g697
g665
tp2965
a(g707
g655
tp2966
a(g707
g665
tp2967
a(g655
g628
tp2968
a(g655
g638
tp2969
a(g665
g628
tp2970
a(g665
g638
tp2971
a(g499
g567
tp2972
a(g499
g606
tp2973
a(g499
g530
tp2974
a(g516
g584
tp2975
a(g516
g547
tp2976
a(g516
g675
tp2977
a(g523
g606
tp2978
a(g523
g615
tp2979
a(g523
g1204
tp2980
a(g567
g547
tp2981
a(g567
g1213
tp2982
a(g567
g621
tp2983
a(g567
g574
tp2984
a(g584
g1204
tp2985
a(g584
g621
tp2986
a(g584
g530
tp2987
a(g540
g523
tp2988
a(g540
g1213
tp2989
a(g540
g615
tp2990
a(g540
g675
tp2991
a(g540
g574
tp2992
a(g547
g606
tp2993
a(g606
g628
tp2994
a(g606
g638
tp2995
a(g606
g1204
tp2996
a(g606
g648
tp2997
a(g1213
g675
tp2998
a(g1213
g621
tp2999
a(g615
g655
tp3000
a(g615
g665
tp3001
a(g615
g690
tp3002
a(g675
g628
tp3003
a(g675
g638
tp3004
a(g675
g648
tp3005
a(g675
g530
tp3006
a(g1204
g621
tp3007
a(g621
g697
tp3008
a(g621
g707
tp3009
a(g621
g717
tp3010
a(g648
g724
tp3011
a(g648
g734
tp3012
a(g648
g750
tp3013
a(g690
g757
tp3014
a(g690
g767
tp3015
a(g690
g628
tp3016
a(g690
g638
tp3017
a(g690
g789
tp3018
a(g717
g655
tp3019
a(g717
g665
tp3020
a(g717
g844
tp3021
a(g717
g795
tp3022
a(g750
g801
tp3023
a(g750
g697
tp3024
a(g750
g707
tp3025
a(g750
g817
tp3026
a(g789
g824
tp3027
a(g789
g834
tp3028
a(g789
g724
tp3029
a(g789
g734
tp3030
a(g789
g865
tp3031
a(g844
g801
tp3032
a(g844
g757
tp3033
a(g844
g767
tp3034
a(g844
g817
tp3035
a(g795
g872
tp3036
a(g795
g882
tp3037
a(g795
g757
tp3038
a(g795
g767
tp3039
a(g795
g895
tp3040
a(g817
g932
tp3041
a(g817
g908
tp3042
a(g865
g999
tp3043
a(g865
g939
tp3044
a(g865
g956
tp3045
a(g865
g801
tp3046
a(g865
g915
tp3047
a(g895
g1006
tp3048
a(g895
g963
tp3049
a(g895
g973
tp3050
a(g895
g983
tp3051
a(g895
g946
tp3052
a(g895
g922
tp3053
a(g895
g824
tp3054
a(g895
g834
tp3055
a(g895
g1026
tp3056
a(g908
g956
tp3057
a(g908
g946
tp3058
a(g908
g1013
tp3059
a(g908
g1089
tp3060
a(g908
g872
tp3061
a(g908
g882
tp3062
a(g908
g1033
tp3063
a(g915
g1006
tp3064
a(g915
g939
tp3065
a(g915
g932
tp3066
a(g915
g1040
tp3067
a(g1026
g999
tp3068
a(g1026
g1013
tp3069
a(g1033
g939
tp3070
a(g1033
g922
tp3071
a(g530
g574
tp3072
a(g557
g523
tp3073
a(g557
g584
tp3074
a(g557
g547
tp3075
a(g557
g574
tp3076
asS'_atomTypeNameList'
p3077
(lp3078
g510
ag521
ag528
ag572
ag589
ag545
ag552
aS'c'
aS'o'
aS'n'
aS'c'
aS'o'
ag626
ag653
ag695
ag722
ag755
aS'c'
aS'o'
aS'n'
ag822
ag870
ag900
ag913
ag920
ag1031
ag1038
ag1011
ag1004
ag944
ag937
ag961
ag968
ag978
ag988
ag951
ag1018
ag1045
ag1094
ag927
ag877
ag887
ag829
ag839
ag806
ag762
ag772
ag729
ag739
ag702
ag712
ag660
ag670
ag633
ag643
ag535
ag579
ag562
asS'residueLabel'
p3079
(lp3080
S'LIG'
p3081
asS'atomTypesGromacs'
p3082
(lp3083
g506
ag550
ag609
ag1216
ag618
ag624
ag898
ag942
ag935
ag966
ag949
ag1092
ag827
asS'pbc'
p3084
NsS'debug'
p3085
I01
sS'atomTypeSystem'
p3086
S'gaff'
p3087
sbsS'acParDict'
p3088
(dp3089
S'acMol2FileName'
p3090
S'Ligand_bcc_gaff.mol2'
p3091
sS'leapAmberFile'
p3092
S'leaprc.ff99SB'
p3093
sS'res'
p3094
g441
sS'leapGaffFile'
p3095
S'leaprc.gaff'
p3096
sS'acBase'
p3097
g9
sS'ext'
p3098
S'mol2'
p3099
sS'base'
p3100
g2931
ssS'babelLog'
p3101
S'1 molecule converted\n20 audit log messages '
p3102
sS'tmpDir'
p3103
S'/home/boincadm/projects/DrugDiscovery/.acpypi_tmp_Ligand'
p3104
sS'engine'
p3105
S'tleap'
p3106
sS'acExe'
p3107
S'/usr/local/antechamber-1.27/exe/antechamber'
p3108
sS'sleapExe'
p3109
S'which: no sleap in (/usr/local/gromacs/bin/:/usr/kerberos/bin:/usr/local/bin:/bin:/usr/bin:/usr/local/antechamber-1.27:/usr/local/antechamber-1.27/exe:/home/boincadm/bin)'
p3110
sg2435
I00
sg3079
(lp3111
S'LIG'
p3112
asS'tleapExe'
p3113
S'/usr/local/antechamber-1.27/exe/tleap'
p3114
sS'babelExe'
p3115
S'/usr/local/bin/babel'
p3116
sS'acXyzFileName'
p3117
S'Ligand_AC.inpcrd'
p3118
sg3090
g3091
sS'tleapLog'
p3119
S"-I: Adding /usr/local/antechamber-1.27/dat/leap/prep to search path.\n-I: Adding /usr/local/antechamber-1.27/dat/leap/lib to search path.\n-I: Adding /usr/local/antechamber-1.27/dat/leap/parm to search path.\n-I: Adding /usr/local/antechamber-1.27/dat/leap/cmd to search path.\n-f: Source tleap.in.\n\nWelcome to LEaP!\n(no leaprc in search path)\nSourcing: ./tleap.in\n----- Source: /usr/local/antechamber-1.27/dat/leap/cmd/leaprc.ff99SB\n----- Source of /usr/local/antechamber-1.27/dat/leap/cmd/leaprc.ff99SB done\nLog file: ./leap.log\nLoading parameters: /usr/local/antechamber-1.27/dat/leap/parm/parm99.dat\nReading title:\nPARM99 for DNA,RNA,AA, organic molecules, TIP3P wat. Polariz.& LP incl.02/04/99\n(UNKNOWN ATOM TYPE: HZ)\n(UNKNOWN ATOM TYPE: NY)\n(UNKNOWN ATOM TYPE: IM)\n(UNKNOWN ATOM TYPE: Li)\n(UNKNOWN ATOM TYPE: IP)\n(UNKNOWN ATOM TYPE: K)\n(UNKNOWN ATOM TYPE: Rb)\n(UNKNOWN ATOM TYPE: Cs)\n(UNKNOWN ATOM TYPE: Zn)\n(UNKNOWN ATOM TYPE: IB)\n(UNKNOWN ATOM TYPE: LP)\nLoading parameters: /usr/local/antechamber-1.27/dat/leap/parm/frcmod.ff99SB\nReading force field modification type file (frcmod)\nReading title:\nModification/update of parm99.dat (Hornak & Simmerling)\nLoading library: /usr/local/antechamber-1.27/dat/leap/lib/all_nucleic94.lib\nLoading: DA\nLoading: DA3\nLoading: DA5\nLoading: DAN\nLoading: DC\nLoading: DC3\nLoading: DC5\nLoading: DCN\nLoading: DG\nLoading: DG3\nLoading: DG5\nLoading: DGN\nLoading: DT\nLoading: DT3\nLoading: DT5\nLoading: DTN\nLoading: RA\nLoading: RA3\nLoading: RA5\nLoading: RAN\nLoading: RC\nLoading: RC3\nLoading: RC5\nLoading: RCN\nLoading: RG\nLoading: RG3\nLoading: RG5\nLoading: RGN\nLoading: RU\nLoading: RU3\nLoading: RU5\nLoading: RUN\nLoading library: /usr/local/antechamber-1.27/dat/leap/lib/all_amino94.lib\nLoading: ALA\nLoading: ARG\nLoading: ASH\nLoading: ASN\nLoading: ASP\nLoading: CYM\nLoading: CYS\nLoading: CYX\nLoading: GLH\nLoading: GLN\nLoading: GLU\nLoading: GLY\nLoading: HID\nLoading: HIE\nLoading: HIP\nLoading: ILE\nLoading: LEU\nLoading: LYN\nLoading: LYS\nLoading: MET\nLoading: PHE\nLoading: PRO\nLoading: SER\nLoading: THR\nLoading: TRP\nLoading: TYR\nLoading: VAL\nLoading library: /usr/local/antechamber-1.27/dat/leap/lib/all_aminoct94.lib\nLoading: CALA\nLoading: CARG\nLoading: CASN\nLoading: CASP\nLoading: CCYS\nLoading: CCYX\nLoading: CGLN\nLoading: CGLU\nLoading: CGLY\nLoading: CHID\nLoading: CHIE\nLoading: CHIP\nLoading: CILE\nLoading: CLEU\nLoading: CLYS\nLoading: CMET\nLoading: CPHE\nLoading: CPRO\nLoading: CSER\nLoading: CTHR\nLoading: CTRP\nLoading: CTYR\nLoading: CVAL\nLoading: NHE\nLoading: NME\nLoading library: /usr/local/antechamber-1.27/dat/leap/lib/all_aminont94.lib\nLoading: ACE\nLoading: NALA\nLoading: NARG\nLoading: NASN\nLoading: NASP\nLoading: NCYS\nLoading: NCYX\nLoading: NGLN\nLoading: NGLU\nLoading: NGLY\nLoading: NHID\nLoading: NHIE\nLoading: NHIP\nLoading: NILE\nLoading: NLEU\nLoading: NLYS\nLoading: NMET\nLoading: NPHE\nLoading: NPRO\nLoading: NSER\nLoading: NTHR\nLoading: NTRP\nLoading: NTYR\nLoading: NVAL\nLoading library: /usr/local/antechamber-1.27/dat/leap/lib/ions94.lib\nLoading: CIO\nLoading: Cl-\nLoading: Cs+\nLoading: IB\nLoading: K+\nLoading: Li+\nLoading: MG2\nLoading: Na+\nLoading: Rb+\nLoading library: /usr/local/antechamber-1.27/dat/leap/lib/solvents.lib\nLoading: CHCL3BOX\nLoading: DC4\nLoading: MEOHBOX\nLoading: NMABOX\nLoading: PL3\nLoading: POL3BOX\nLoading: SPC\nLoading: SPCBOX\nLoading: T4E\nLoading: TIP3PBOX\nLoading: TIP4PBOX\nLoading: TIP4PEWBOX\nLoading: TP3\nLoading: TP4\nLoading: TP5\n----- Source: /usr/local/antechamber-1.27/dat/leap/cmd/leaprc.gaff\n----- Source of /usr/local/antechamber-1.27/dat/leap/cmd/leaprc.gaff done\nLog file: ./leap.log\nLoading parameters: /usr/local/antechamber-1.27/dat/leap/parm/gaff.dat\nReading title:\nAMBER General Force Field for organic mol., add. info. at the end (June, 2003)\nLoading parameters: ./Ligand_AC.frcmod\nReading force field modification type file (frcmod)\nReading title:\nremark goes here\nLoading Mol2 file: ./Ligand_bcc_gaff.mol2\nReading MOLECULE named Ligand.pdb\nChecking 'LIG'....\nChecking parameters for unit 'LIG'.\nChecking for bond parameters.\nChecking for angle parameters.\nUnit is OK.\nChecking Unit.\nBuilding topology.\nBuilding atom parameters.\nBuilding bond parameters.\nBuilding angle parameters.\nBuilding proper torsion parameters.\nBuilding improper torsion parameters.\n--Impropers:\n  1\tC13<LIG> - O3<LIG> - C14<LIG> - N2<LIG>\n  1\tC14<LIG> - C15<LIG> - N2<LIG> - H13<LIG>\n  1\tC16<LIG> - C18<LIG> - C17<LIG> - C24<LIG>\n  1\tC17<LIG> - C19<LIG> - C18<LIG> - C23<LIG>\n  1\tC17<LIG> - N3<LIG> - C24<LIG> - C25<LIG>\n  1\tC18<LIG> - C20<LIG> - C19<LIG> - H8<LIG>\n  1\tC18<LIG> - C22<LIG> - C23<LIG> - N3<LIG>\n  1\tC19<LIG> - C21<LIG> - C20<LIG> - Br1<LIG>\n  1\tC1<LIG> - C3<LIG> - C2<LIG> - H25<LIG>\n  1\tC1<LIG> - C5<LIG> - C6<LIG> - H1<LIG>\n  1\tC20<LIG> - C22<LIG> - C21<LIG> - H7<LIG>\n  1\tC21<LIG> - C23<LIG> - C22<LIG> - H6<LIG>\n  1\tC23<LIG> - C24<LIG> - N3<LIG> - H5<LIG>\n  1\tC2<LIG> - C4<LIG> - C3<LIG> - H24<LIG>\n  1\tC2<LIG> - C6<LIG> - C1<LIG> - H26<LIG>\n  1\tC3<LIG> - C5<LIG> - C4<LIG> - C8<LIG>\n  1\tC4<LIG> - C6<LIG> - C5<LIG> - C7<LIG>\n  1\tC4<LIG> - N1<LIG> - C8<LIG> - O2<LIG>\n  1\tC5<LIG> - O1<LIG> - C7<LIG> - N1<LIG>\n  1\tC7<LIG> - C8<LIG> - N1<LIG> - C9<LIG>\n total 20 improper torsions applied\nBuilding H-Bond parameters.\nNot Marking per-residue atom chain types.\nMarking per-residue atom chain types.\n  (Residues lacking connect0/connect1 - \n   these don't have chain types marked:\n\n\tres\ttotal affected\n\n\tLIG\t1\n  )\n (no restraints)\nSaving LIG.\nBuilding topology.\nBuilding atom parameters.\n\tQuit"
p3120
sS'multiplicity'
p3121
S'1'
sg2930
g2931
sS'parmchkExe'
p3122
S'/usr/local/antechamber-1.27/exe/parmchk'
p3123
sg3098
S'.mol2'
p3124
sg505
g3087
sS'charmmBase'
p3125
S'Ligand_CHARMM'
p3126
sg3085
I01
sS'absInputFile'
p3127
S'/home/boincadm/projects/DrugDiscovery/Ligand.pdb'
p3128
sS'acTopFileName'
p3129
S'Ligand_AC.prmtop'
p3130
sb.